                 U abort
000000000006d5f0 T aby_add_vector_operator_client
000000000006de30 T aby_add_vector_operator_client64
000000000006d4d0 T aby_add_vector_operator_server
000000000006dd20 T aby_add_vector_operator_server64
000000000006d860 T aby_mul_vector_operator_client
000000000006e080 T aby_mul_vector_operator_client64
000000000006d740 T aby_mul_vector_operator_server
000000000006df70 T aby_mul_vector_operator_server64
                 U accept
0000000000120830 T arch_clean
0000000000120840 T arch_cycles
0000000000120800 T arch_init
0000000000120860 T arch_lzcnt
                 U bind
0000000000122c50 T bn_abs
0000000000121650 T bn_add
0000000000130de0 T bn_add1_low
00000000001216f0 T bn_add_dig
0000000000131530 T bn_addn_low
0000000000122db0 T bn_bits
0000000000121b10 T bn_clean
0000000000121a10 T bn_cmp
0000000000121980 T bn_cmp_abs
00000000001219f0 T bn_cmp_dig
0000000000122c00 T bn_copy
00000000001229c0 T bn_dbl
0000000000134320 T bn_div
0000000000139f80 T bn_div1_low
00000000001343f0 T bn_div_dig
0000000000139f60 T bn_divn_low
0000000000134380 T bn_div_rem
00000000001344e0 T bn_div_rem_dig
0000000000122df0 T bn_get_bit
0000000000122f60 T bn_get_dig
0000000000121b20 T bn_grow
0000000000122f20 T bn_ham
0000000000122a10 T bn_hlv
0000000000122d90 T bn_is_even
0000000000122ca0 T bn_is_zero
0000000000122a40 T bn_lsh
0000000000132100 T bn_lsh1_low
0000000000132110 T bn_lshb_low
0000000000121a90 T bn_make
0000000000121cf0 T bn_mod_2b
0000000000121dd0 T bn_mod_barrt
0000000000121d90 T bn_mod_basic
0000000000121d80 T bn_mod_dig
0000000000122320 T bn_mod_monty_back
0000000000122160 T bn_mod_monty_basic
0000000000122280 T bn_mod_monty_comba
0000000000122100 T bn_mod_monty_conv
0000000000131cc0 T bn_modn_low
00000000001223b0 T bn_mod_pmers
0000000000121da0 T bn_mod_pre_barrt
0000000000122060 T bn_mod_pre_monty
0000000000122370 T bn_mod_pre_pmers
00000000001320d0 T bn_mul1_low
00000000001320c0 T bn_mula_low
0000000000122540 T bn_mul_basic
0000000000122600 T bn_mul_comba
00000000001224e0 T bn_mul_dig
00000000001320f0 T bn_muld_low
00000000001229b0 T bn_mul_karat
00000000001320e0 T bn_muln_low
0000000000122cd0 T bn_neg
0000000000123120 T bn_print
0000000000123020 T bn_rand
0000000000123090 T bn_rand_mod
0000000000123da0 T bn_read_bin
00000000001241b0 T bn_read_raw
00000000001233b0 T bn_read_str
0000000000136bd0 T bn_rec_glv
0000000000136930 T bn_rec_jsf
00000000001349d0 T bn_rec_naf
0000000000136500 T bn_rec_reg
00000000001355c0 T bn_rec_rtnaf
00000000001348b0 T bn_rec_slw
0000000000135140 T bn_rec_tnaf
0000000000134c10 T bn_rec_tnaf_get
0000000000134f50 T bn_rec_tnaf_mod
00000000001346d0 T bn_rec_win
0000000000122b30 T bn_rsh
0000000000132120 T bn_rsh1_low
0000000000132130 T bn_rshb_low
0000000000122fa0 T bn_set_2b
0000000000122e70 T bn_set_bit
0000000000122f70 T bn_set_dig
0000000000122c70 T bn_sign
0000000000123d70 T bn_size_bin
00000000001241a0 T bn_size_raw
0000000000123310 T bn_size_str
00000000001217e0 T bn_sub
0000000000131540 T bn_sub1_low
0000000000121890 T bn_sub_dig
0000000000131cb0 T bn_subn_low
0000000000121b60 T bn_trim
0000000000124060 T bn_write_bin
00000000001241f0 T bn_write_raw
00000000001235b0 T bn_write_str
0000000000122c80 T bn_zero
00000000000e1790 W boost_asio_detail_posix_thread_function
0000000000380fb0 B __bss_start
                 U calloc
                 U chdir
                 U clock_gettime
                 U close
                 U closedir
                 U connect
0000000000120770 T core_clean
00000000001207b0 T core_get
0000000000120720 T core_init
00000000001207c0 T core_set
                 U __cxa_allocate_exception
                 U __cxa_atexit
                 U __cxa_begin_catch
                 U __cxa_call_unexpected
                 U __cxa_end_catch
                 w __cxa_finalize
                 U __cxa_free_exception
                 U __cxa_guard_acquire
                 U __cxa_guard_release
000000000013eca0 T __cxa_init_primary_exception
                 U __cxa_pure_virtual
                 U __cxa_rethrow
                 U __cxa_throw
000000000013da10 T __cxa_throw_bad_array_new_length
000000000006d070 T delete_vector
000000000006d110 T delete_vector64
                 U DES_ecb3_encrypt
                 U DES_ecb_encrypt
                 U DES_set_key
0000000000124f90 T dv_cmp
0000000000125100 T dv_cmp_const
00000000001246f0 T dv_copy
0000000000124700 T dv_copy_cond
0000000000125510 T dv_lshd
00000000001244e0 T dv_print
0000000000125250 T dv_rshd
0000000000124b80 T dv_swap_cond
0000000000124680 T dv_zero
                 U __dynamic_cast
00000000001270e0 T eb_add_basic
0000000000127340 T eb_add_projc
000000000012f460 T eb_blind
00000000001278d0 T eb_cmp
000000000012f2c0 T eb_copy
0000000000127b40 T eb_curve_clean
0000000000127b80 T eb_curve_get_a
0000000000127bc0 T eb_curve_get_b
0000000000127c60 T eb_curve_get_cof
0000000000127c20 T eb_curve_get_gen
0000000000127c40 T eb_curve_get_ord
0000000000127c80 T eb_curve_get_tab
0000000000127a50 T eb_curve_init
0000000000127c00 T eb_curve_is_kbltz
0000000000127ba0 T eb_curve_opt_a
0000000000127be0 T eb_curve_opt_b
0000000000127ca0 T eb_curve_set
0000000000127e20 T eb_dbl_basic
0000000000127f90 T eb_dbl_projc
0000000000139bf0 T eb_frb
0000000000139c70 T eb_hlv
000000000012f270 T eb_is_infty
0000000000128e60 T eb_mul_basic
000000000012a110 T eb_mul_dig
000000000012a810 T eb_mul_fix_basic
000000000012b9a0 T eb_mul_fix_combd
000000000012ab40 T eb_mul_fix_combs
000000000012bfb0 T eb_mul_fix_lwnaf
000000000012a0e0 T eb_mul_gen
00000000001297e0 T eb_mul_halve
00000000001290b0 T eb_mul_lodah
0000000000129700 T eb_mul_lwnaf
000000000012a780 T eb_mul_pre_basic
000000000012b5e0 T eb_mul_pre_combd
000000000012a8d0 T eb_mul_pre_combs
000000000012bfa0 T eb_mul_pre_lwnaf
0000000000129770 T eb_mul_rwnaf
000000000012d9a0 T eb_mul_sim_basic
000000000012e420 T eb_mul_sim_gen
000000000012df30 T eb_mul_sim_inter
000000000012dff0 T eb_mul_sim_joint
000000000012da00 T eb_mul_sim_trick
000000000012e4f0 T eb_neg_basic
000000000012e560 T eb_neg_projc
000000000012e650 T eb_norm
000000000012e750 T eb_norm_sim
000000000012f4d0 T eb_on_curve
000000000012ed10 T eb_param_get
000000000012f240 T eb_param_level
000000000012f0d0 T eb_param_print
000000000012ed30 T eb_param_set
000000000012f090 T eb_param_set_any
000000000012f080 T eb_param_set_any_kbltz
000000000012f060 T eb_param_set_any_plain
0000000000139e00 T eb_pck
000000000012fbb0 T eb_print
000000000012f300 T eb_rand
000000000012fbf0 T eb_read_bin
000000000012f360 T eb_rhs
000000000012f290 T eb_set_infty
000000000012fbd0 T eb_size_bin
00000000001272f0 T eb_sub_basic
0000000000127880 T eb_sub_projc
000000000012f570 T eb_tab
0000000000139e60 T eb_upk
000000000012fd60 T eb_write_bin
0000000000380fb0 D _edata
000000000040b4c8 B _end
                 U epoll_create
                 U epoll_create1
                 U epoll_ctl
                 U epoll_wait
                 U __errno_location
                 U eventfd
                 U EVP_aes_128_cbc
                 U EVP_aes_128_ecb
                 U EVP_aes_192_cbc
                 U EVP_aes_192_ecb
                 U EVP_aes_256_cbc
                 U EVP_aes_256_ecb
                 U EVP_CIPHER_CTX_cleanup
                 U EVP_CIPHER_CTX_init
                 U EVP_DecryptInit_ex
                 U EVP_DecryptUpdate
                 U EVP_EncryptInit_ex
                 U EVP_EncryptUpdate
                 U exit
0000000000136d70 T fb_add
0000000000132140 T fb_add1_low
0000000000136d80 T fb_add_dig
00000000001321c0 T fb_addd_low
00000000001321a0 T fb_addn_low
0000000000126620 T fb_bits
0000000000136db0 T fb_cmp
0000000000136d90 T fb_cmp_dig
0000000000126580 T fb_copy
00000000001265c0 T fb_get_bit
00000000001374d0 T fb_inv_almos
0000000000136dc0 T fb_inv_basic
0000000000136fb0 T fb_inv_binar
0000000000137870 T fb_inv_bruch
0000000000137c70 T fb_inv_ctaia
0000000000137220 T fb_inv_exgcd
00000000001376d0 T fb_inv_itoht
0000000000137f40 T fb_inv_lower
0000000000139fa0 T fb_invn_low
0000000000137fa0 T fb_inv_sim
00000000001265a0 T fb_is_zero
0000000000138320 T fb_itr_basic
000000000013a1f0 T fb_itrn_low
0000000000138550 T fb_itr_pre_quick
0000000000138820 T fb_itr_quick
0000000000126430 T fb_lsh
0000000000133360 T fb_lsh1_low
00000000001333a0 T fb_lsha_low
0000000000133370 T fb_lshb_low
0000000000133080 T fb_mul1_low
0000000000138830 T fb_mul_basic
0000000000138c30 T fb_mul_dig
0000000000132590 T fb_muld_low
000000000013aee0 T fb_mulh_low
0000000000138a60 T fb_mul_integ
0000000000138aa0 T fb_mul_karat
0000000000138a70 T fb_mul_lodah
0000000000132d60 T fb_mulm_low
0000000000132c00 T fb_muln_low
0000000000138c60 T fb_param_get
0000000000138f60 T fb_param_print
0000000000138c80 T fb_param_set
0000000000138f50 T fb_param_set_any
0000000000125840 T fb_poly_add
0000000000125810 T fb_poly_clean
0000000000125820 T fb_poly_get
00000000001263f0 T fb_poly_get_chain
00000000001263a0 T fb_poly_get_rdc
00000000001263d0 T fb_poly_get_slv
0000000000125910 T fb_poly_get_srz
0000000000126370 T fb_poly_get_trc
00000000001257e0 T fb_poly_init
00000000001261e0 T fb_poly_set_dense
00000000001262a0 T fb_poly_set_penta
0000000000126220 T fb_poly_set_trino
0000000000125930 T fb_poly_tab_sqr
0000000000126350 T fb_poly_tab_srz
00000000001266c0 T fb_print
00000000001266a0 T fb_rand
00000000001332b0 T fb_rdc1_low
0000000000138ff0 T fb_rdc_basic
0000000000133110 T fb_rdcn_low
00000000001397c0 T fb_rdc_quick
0000000000126fc0 T fb_read_bin
00000000001267d0 T fb_read_str
00000000001264a0 T fb_rsh
0000000000133380 T fb_rsh1_low
0000000000133390 T fb_rshb_low
00000000001265e0 T fb_set_bit
0000000000126680 T fb_set_dig
0000000000126720 T fb_size_str
00000000001397d0 T fb_slv_basic
000000000013a560 T fb_slvn_low
00000000001399c0 T fb_slv_quick
0000000000126510 T fb_sqr_basic
0000000000126570 T fb_sqr_integ
0000000000133890 T fb_sqrl_low
0000000000133920 T fb_sqrm_low
0000000000133670 T fb_sqrn_low
0000000000126540 T fb_sqr_quick
00000000001399e0 T fb_srt_basic
000000000013b140 T fb_srtn_low
0000000000139a80 T fb_srt_quick
0000000000139a90 T fb_trc_basic
000000000013b290 T fb_trcn_low
0000000000139be0 T fb_trc_quick
0000000000127050 T fb_write_bin
00000000001269f0 T fb_write_str
0000000000126590 T fb_zero
                 U fchmod
                 U fchmodat
                 U fclose
                 U fcntl
                 U fflush
000000000013f8e0 T _fini
                 U fopen
                 U fread
                 U free
                 U freeaddrinfo
                 U fseek
                 U ftell
                 U fwrite
                 U getaddrinfo
                 U getcwd
                 U getenv
                 U getsockname
                 U getsockopt
                 U gettext
                 w __gmon_start__
                 U __gmpn_addmul_1
                 U __gmpn_add_n
                 U __gmpn_divrem_1
                 U __gmpn_lshift
                 U __gmpn_mul
                 U __gmpn_mul_1
                 U __gmpn_mul_n
                 U __gmpn_rshift
                 U __gmpn_sub_n
                 U __gmpn_tdiv_qr
                 U __gmp_printf
                 U __gmpz_add
                 U __gmpz_addmul
                 U __gmpz_add_ui
                 U __gmpz_clear
                 U __gmpz_clears
                 U __gmpz_clrbit
                 U __gmpz_cmp
                 U __gmpz_cmp_ui
                 U __gmpz_divexact
                 U __gmpz_export
                 U __gmpz_fdiv_q_2exp
                 U __gmpz_fdiv_r_2exp
                 U __gmpz_gcd
                 U __gmpz_import
                 U __gmpz_init
                 U __gmpz_inits
                 U __gmpz_init_set
                 U __gmpz_inp_raw
                 U __gmpz_invert
                 U __gmpz_mod
                 U __gmpz_mul
                 U __gmpz_nextprime
                 U __gmpz_out_raw
                 U __gmpz_powm
                 U __gmpz_probab_prime_p
                 U __gmpz_set
                 U __gmpz_setbit
                 U __gmpz_set_si
                 U __gmpz_set_str
                 U __gmpz_set_ui
                 U __gmpz_sizeinbase
                 U __gmpz_sub
                 U __gmpz_sub_ui
                 U __gmpz_tstbit
0000000000383b98 B gvpvqp
                 U __gxx_personality_v0
0000000000380f60 D ifcg1024
0000000000380f48 D ifcg2048
0000000000380f30 D ifcg3072
0000000000380f68 D ifcp1024
0000000000380f50 D ifcp2048
0000000000380f38 D ifcp3072
0000000000380f58 D ifcq1024
0000000000380f40 D ifcq2048
0000000000380f28 D ifcq3072
                 U if_indextoname
                 U if_nametoindex
                 U inet_ntop
                 U inet_pton
00000000000565f8 T _init
                 U ioctl
                 w _ITM_addUserCommitAction
                 w _ITM_deregisterTMCloneTable
                 w _ITM_memcpyRnWt
                 w _ITM_memcpyRtWn
                 w _ITM_registerTMCloneTable
                 w _ITM_RU1
                 w _ITM_RU8
                 U link
                 U listen
                 U log
                 U __lxstat
0000000000065780 T main
                 U malloc
000000000012fec0 T md_map_sh256
                 U memchr
                 U memcmp
                 U memcpy
                 U memmove
                 U memset
                 U mkdir
0000000000383c00 B m_mod
0000000000383bf8 B m_numberOfElements_g
0000000000383bf0 B m_numberOfElements_h
0000000000383c10 B m_prod
0000000000383c20 B m_table_g
0000000000383c18 B m_table_h
0000000000383d20 B m_tRecv
0000000000383e00 B m_tSend
0000000000383ee0 B m_tTimes
                 U open
                 U opendir
                 U pause
                 U pipe
                 U poll
                 U pow
0000000000383ba0 B powtwo
                 U printf
                 U pthread_condattr_init
                 U pthread_condattr_setclock
                 U pthread_cond_broadcast
                 U pthread_cond_destroy
                 U pthread_cond_init
                 U pthread_cond_signal
                 U pthread_cond_wait
                 U pthread_create
                 U pthread_detach
                 U pthread_join
                 w __pthread_key_create
                 U pthread_mutex_destroy
                 U pthread_mutex_init
                 U pthread_mutex_lock
                 U pthread_mutex_unlock
                 U pthread_sigmask
                 U putchar
                 U puts
0000000000120b80 T rand_bytes
0000000000120960 T rand_clean
0000000000120870 T rand_init
0000000000121330 T rand_seed
                 U read
                 U readdir
                 U readlink
                 U realpath
                 U recv
                 U remove
                 U rename
                 U send
                 U sendfile
                 U setsockopt
                 U SHA1_Final
                 U SHA1_Init
                 U SHA1_Update
0000000000130ba0 T SHA224FinalBits
0000000000130a10 T SHA224Input
0000000000130680 T SHA224Reset
00000000001306c0 T SHA224Result
                 U SHA256_Final
0000000000130a20 T SHA256FinalBits
                 U SHA256_Init
0000000000130910 T SHA256Input
00000000001308d0 T SHA256Reset
0000000000130bb0 T SHA256Result
                 U SHA256_Update
                 U SHA512_Final
                 U SHA512_Init
                 U SHA512_Update
                 U sigfillset
                 U socket
                 U sprintf
                 U __stack_chk_fail
                 U statvfs
                 U stdout
                 U stpcpy
                 U strcat
                 U strchr
                 U strcmp
                 U strerror
                 U strerror_r
                 U strlen
                 U strncmp
                 U strncpy
                 U strtod
                 U strtol
                 U symlink
                 U timerfd_create
                 U timerfd_settime
                 U __tls_get_addr
                 U truncate
                 U _Unwind_Resume
                 U usleep
0000000000133bb0 T util_bits_dig
0000000000133bd0 T util_cmp_const
0000000000133b80 T util_conv_big
0000000000133ba0 T util_conv_char
0000000000133b70 T util_conv_endian
0000000000133b90 T util_conv_little
0000000000134080 T util_print_dig
0000000000133fd0 T util_printf
                 U utimensat
000000000006cff0 T vector_test
000000000006d090 T vector_test64
                 U vfprintf
                 U vsnprintf
                 U wmemcpy
                 U wmemmove
                 U wmemset
                 U write
                 U __xstat
00000000000d76e0 T _Z10createKeysv
00000000000d6160 T _Z10dgk_keygenjjPP12dgk_pubkey_tPP12dgk_prvkey_t
00000000000d8450 T _Z10djn_keygenjPP12djn_pubkey_tPP12djn_prvkey_t
00000000000dc740 T _Z10fbdbpowmodP12__mpz_structPKS_S2_
00000000000dc3b0 T _Z10fbpowmod_gP12__mpz_structPKS_
00000000000dc470 T _Z10fbpowmod_hP12__mpz_structPKS_
00000000000ed000 T _Z10floor_log2i
00000000000ebde0 T _Z10getMillies8timespecS_
00000000000ebe40 T _Z10StartWatchRKSs8ABYPHASE
00000000000d5b70 T _Z11des_encryptPhS_S_b
00000000000d6f50 T _Z11dgk_decryptP12__mpz_structP12dgk_pubkey_tP12dgk_prvkey_tS0_
00000000000d72d0 T _Z11dgk_readkeyjjPP12dgk_pubkey_tPP12dgk_prvkey_t
00000000000d8950 T _Z11djn_decryptP12__mpz_structP12djn_pubkey_tP12djn_prvkey_tS0_
00000000000d8000 T _Z11djn_encryptP12__mpz_structP12djn_pubkey_tS0_
00000000000d5e10 T _Z11get_sec_lvlj
00000000000db090 T _Z11print_usageSsP11parsing_ctxj
00000000000d4f10 T _Z11sha256_hashPhjS_jS_
00000000000d4f70 T _Z11sha512_hashPhjS_jS_
00000000000d7910 T _Z11test_encdecv
00000000000d5bd0 T _Z12des3_encryptPhS_S_b
00000000000d7150 T _Z12dgk_storekeyjjP12dgk_pubkey_tP12dgk_prvkey_t
00000000000ec190 T _Z12PrintTimingsv
00000000000d7aa0 T _Z12test_sharingv
00000000000d4fe0 T _Z13gen_rnd_bytesP13prf_state_ctxPhj
00000000000dbab0 T _Z13parse_optionsPiPPPcP11parsing_ctxj
00000000000ec0a0 T _Z13StopRecordingRKSs8ABYPHASERKSt6vectorISt10unique_ptrI7CSocketSt14default_deleteIS4_EESaIS7_EE
00000000000ecf90 T _Z14ceil_log2_min1i
00000000000ecfc0 T _Z14ceil_log2_reali
00000000000d6af0 T _Z14dgk_encrypt_dbP12__mpz_structP12dgk_pubkey_tS0_
00000000000d6b50 T _Z14dgk_encrypt_fbP12__mpz_structP12dgk_pubkey_tS0_
00000000000d7110 T _Z14dgk_freeprvkeyP12dgk_prvkey_t
00000000000d70e0 T _Z14dgk_freepubkeyP12dgk_pubkey_t
00000000000d80a0 T _Z14djn_encrypt_fbP12__mpz_structP12djn_pubkey_tS0_
00000000000d81e0 T _Z14djn_freeprvkeyP12djn_prvkey_t
00000000000d81a0 T _Z14djn_freepubkeyP12djn_pubkey_t
00000000000ebff0 T _Z14StartRecordingRKSs8ABYPHASERKSt6vectorISt10unique_ptrI7CSocketSt14default_deleteIS4_EESaIS7_EE
000000000006e3b0 T _Z15BuildAddCircuitP5shareS0_P14BooleanCircuit
000000000006e3d0 T _Z15BuildMulCircuitP5shareS0_P14BooleanCircuit
00000000000d6da0 T _Z15dgk_encrypt_crtP12__mpz_structP12dgk_pubkey_tP12dgk_prvkey_tS0_
00000000000d88a0 T _Z15djn_encrypt_crtP12__mpz_structP12djn_pubkey_tP12djn_prvkey_tS0_
00000000000dc6a0 T _Z15fbdbpowmod_initPK12__mpz_structS1_S1_m
00000000000dc1b0 T _Z15fbpowmod_init_gPK12__mpz_structS1_m
00000000000dc2b0 T _Z15fbpowmod_init_hPK12__mpz_structS1_m
0000000000083740 T _Z16create_new_sharejP7Circuit
0000000000083dd0 T _Z16create_new_shareSt6vectorIjSaIjEEP7Circuit
00000000000db710 T _Z16tokenize_verilogRKSsRSt6vectorIjSaIjEES0_
00000000000d6bd0 T _Z17dgk_encrypt_plainP12__mpz_structP12dgk_pubkey_tS0_
00000000000d8140 T _Z17djn_decrypt_plainP12__mpz_structP12djn_pubkey_tP12djn_prvkey_tS0_
00000000000d8240 T _Z17djn_pow_mod_n_crtP12__mpz_structPKS_S2_PK12djn_pubkey_tPK12djn_prvkey_t
00000000000d5c70 T _Z17gen_secure_randomPhj
00000000000daf50 T _Z17mpz_export_paddedPhjP12__mpz_struct
000000000006e3f0 T _Z17read_test_optionsPiPPPcP6e_rolePjS5_S5_PSsPtS_
00000000000d6c60 T _Z18dgk_encrypt_crt_dbP12__mpz_structP12dgk_pubkey_tP12dgk_prvkey_tS0_
000000000007bc80 W _Z18get_gate_type_name10e_gatetype
00000000000ec880 T _Z18PrintCommunicationv
000000000006d130 T _Z19aby_vector_operatorPFP5shareS0_S0_P14BooleanCircuitERSt6vectorIjSaIjEE6e_rolePKct9e_sharing
00000000000d60a0 T _Z19dgk_complete_pubkeyjjPP12dgk_pubkey_tP12__mpz_structS3_S3_
00000000000d7f40 T _Z19djn_complete_pubkeyjPP12djn_pubkey_tP12__mpz_structS3_
000000000006d980 T _Z21aby_vector_operator64PFP5shareS0_S0_P14BooleanCircuitERSt6vectorImSaImEE6e_rolePKct9e_sharing
000000000006d4a0 T _Z23aby_add_vector_operatorRSt6vectorIjSaIjEE6e_rolePKct9e_sharing
000000000006d710 T _Z23aby_mul_vector_operatorRSt6vectorIjSaIjEE6e_rolePKct9e_sharing
0000000000078660 T _Z23FindBitLenPositionInVecjP15non_lin_vec_ctxj
000000000006dcf0 T _Z25aby_add_vector_operator64RSt6vectorImSaImEE6e_rolePKct9e_sharing
000000000006df40 T _Z25aby_mul_vector_operator64RSt6vectorImSaImEE6e_rolePKct9e_sharing
00000000000d8340 T _Z25djn_pow_mod_n_squared_crtP12__mpz_structPKS_S2_PK12djn_pubkey_tPK12djn_prvkey_t
00000000000d4e10 T _Z6ListenRKSst
00000000000d4970 T _Z6ListenRKSstRSt6vectorIS1_ISt10unique_ptrI7CSocketSt14default_deleteIS3_EESaIS6_EESaIS8_EEmj
00000000000d4c20 T _Z7ConnectRKSst
00000000000d4ce0 T _Z7ConnectRKSstRSt6vectorISt10unique_ptrI7CSocketSt14default_deleteIS3_EESaIS6_EEj
00000000000ed160 T _Z8aby_prngP12__mpz_structm
00000000000ed030 T _Z8aby_randv
00000000000dc530 T _Z8dbpowmodP12__mpz_structPKS_S2_S2_S2_S2_
000000000006ed30 T _Z8get_rolePiPPPc
00000000000db360 T _Z8tokenizeRKSsRSt6vectorIjSaIjEES0_
00000000000ecf50 T _Z9ceil_log2i
00000000000d4eb0 T _Z9sha1_hashPhjS_jS_
00000000000ebf00 T _Z9StopWatchRKSs8ABYPHASE
                 U _ZdaPv
000000000013b2c0 T _ZdaPvm
                 U _ZdlPv
000000000013b2b0 T _ZdlPvm
                 w _ZGTtdlPv
                 w _ZGTtnam
000000000013e110 T _ZGTtNKSt11logic_error4whatEv
000000000013e810 T _ZGTtNKSt13runtime_error4whatEv
000000000013dfb0 T _ZGTtNSt11logic_errorC1EPKc
000000000013e040 T _ZGTtNSt11logic_errorC1ERKNSt7__cxx1112basic_stringIcSt11char_traitsIcESaIcEEE
000000000013dfb0 T _ZGTtNSt11logic_errorC2EPKc
000000000013e040 T _ZGTtNSt11logic_errorC2ERKNSt7__cxx1112basic_stringIcSt11char_traitsIcESaIcEEE
000000000013e0f0 T _ZGTtNSt11logic_errorD0Ev
000000000013e0d0 T _ZGTtNSt11logic_errorD1Ev
000000000013e0d0 T _ZGTtNSt11logic_errorD2Ev
000000000013e830 T _ZGTtNSt11range_errorC1EPKc
000000000013e8c0 T _ZGTtNSt11range_errorC1ERKNSt7__cxx1112basic_stringIcSt11char_traitsIcESaIcEEE
000000000013e830 T _ZGTtNSt11range_errorC2EPKc
000000000013e8c0 T _ZGTtNSt11range_errorC2ERKNSt7__cxx1112basic_stringIcSt11char_traitsIcESaIcEEE
000000000013e970 T _ZGTtNSt11range_errorD0Ev
000000000013e950 T _ZGTtNSt11range_errorD1Ev
000000000013e950 T _ZGTtNSt11range_errorD2Ev
000000000013e130 T _ZGTtNSt12domain_errorC1EPKc
000000000013e1c0 T _ZGTtNSt12domain_errorC1ERKNSt7__cxx1112basic_stringIcSt11char_traitsIcESaIcEEE
000000000013e130 T _ZGTtNSt12domain_errorC2EPKc
000000000013e1c0 T _ZGTtNSt12domain_errorC2ERKNSt7__cxx1112basic_stringIcSt11char_traitsIcESaIcEEE
000000000013e270 T _ZGTtNSt12domain_errorD0Ev
000000000013e250 T _ZGTtNSt12domain_errorD1Ev
000000000013e250 T _ZGTtNSt12domain_errorD2Ev
000000000013e3f0 T _ZGTtNSt12length_errorC1EPKc
000000000013e480 T _ZGTtNSt12length_errorC1ERKNSt7__cxx1112basic_stringIcSt11char_traitsIcESaIcEEE
000000000013e3f0 T _ZGTtNSt12length_errorC2EPKc
000000000013e480 T _ZGTtNSt12length_errorC2ERKNSt7__cxx1112basic_stringIcSt11char_traitsIcESaIcEEE
000000000013e530 T _ZGTtNSt12length_errorD0Ev
000000000013e510 T _ZGTtNSt12length_errorD1Ev
000000000013e510 T _ZGTtNSt12length_errorD2Ev
000000000013e550 T _ZGTtNSt12out_of_rangeC1EPKc
000000000013e5e0 T _ZGTtNSt12out_of_rangeC1ERKNSt7__cxx1112basic_stringIcSt11char_traitsIcESaIcEEE
000000000013e550 T _ZGTtNSt12out_of_rangeC2EPKc
000000000013e5e0 T _ZGTtNSt12out_of_rangeC2ERKNSt7__cxx1112basic_stringIcSt11char_traitsIcESaIcEEE
000000000013e690 T _ZGTtNSt12out_of_rangeD0Ev
000000000013e670 T _ZGTtNSt12out_of_rangeD1Ev
000000000013e670 T _ZGTtNSt12out_of_rangeD2Ev
000000000013e6b0 T _ZGTtNSt13runtime_errorC1EPKc
000000000013e740 T _ZGTtNSt13runtime_errorC1ERKNSt7__cxx1112basic_stringIcSt11char_traitsIcESaIcEEE
000000000013e6b0 T _ZGTtNSt13runtime_errorC2EPKc
000000000013e740 T _ZGTtNSt13runtime_errorC2ERKNSt7__cxx1112basic_stringIcSt11char_traitsIcESaIcEEE
000000000013e7f0 T _ZGTtNSt13runtime_errorD0Ev
000000000013e7d0 T _ZGTtNSt13runtime_errorD1Ev
000000000013e7d0 T _ZGTtNSt13runtime_errorD2Ev
000000000013e990 T _ZGTtNSt14overflow_errorC1EPKc
000000000013ea20 T _ZGTtNSt14overflow_errorC1ERKNSt7__cxx1112basic_stringIcSt11char_traitsIcESaIcEEE
000000000013e990 T _ZGTtNSt14overflow_errorC2EPKc
000000000013ea20 T _ZGTtNSt14overflow_errorC2ERKNSt7__cxx1112basic_stringIcSt11char_traitsIcESaIcEEE
000000000013ead0 T _ZGTtNSt14overflow_errorD0Ev
000000000013eab0 T _ZGTtNSt14overflow_errorD1Ev
000000000013eab0 T _ZGTtNSt14overflow_errorD2Ev
000000000013eaf0 T _ZGTtNSt15underflow_errorC1EPKc
000000000013eb80 T _ZGTtNSt15underflow_errorC1ERKNSt7__cxx1112basic_stringIcSt11char_traitsIcESaIcEEE
000000000013eaf0 T _ZGTtNSt15underflow_errorC2EPKc
000000000013eb80 T _ZGTtNSt15underflow_errorC2ERKNSt7__cxx1112basic_stringIcSt11char_traitsIcESaIcEEE
000000000013ec30 T _ZGTtNSt15underflow_errorD0Ev
000000000013ec10 T _ZGTtNSt15underflow_errorD1Ev
000000000013ec10 T _ZGTtNSt15underflow_errorD2Ev
000000000013e290 T _ZGTtNSt16invalid_argumentC1EPKc
000000000013e320 T _ZGTtNSt16invalid_argumentC1ERKNSt7__cxx1112basic_stringIcSt11char_traitsIcESaIcEEE
000000000013e290 T _ZGTtNSt16invalid_argumentC2EPKc
000000000013e320 T _ZGTtNSt16invalid_argumentC2ERKNSt7__cxx1112basic_stringIcSt11char_traitsIcESaIcEEE
000000000013e3d0 T _ZGTtNSt16invalid_argumentD0Ev
000000000013e3b0 T _ZGTtNSt16invalid_argumentD1Ev
000000000013e3b0 T _ZGTtNSt16invalid_argumentD2Ev
0000000000383c50 u _ZGVN5boost4asio6detail10call_stackINS1_14thread_contextENS1_16thread_info_baseEE4top_E
0000000000383c40 u _ZGVN5boost4asio6detail30execution_context_service_baseINS1_13epoll_reactorEE2idE
0000000000383c30 u _ZGVN5boost4asio6detail30execution_context_service_baseINS1_16resolver_serviceINS0_2ip3tcpEEEE2idE
0000000000383c38 u _ZGVN5boost4asio6detail30execution_context_service_baseINS1_23reactive_socket_serviceINS0_2ip3tcpEEEE2idE
0000000000383c48 u _ZGVN5boost4asio6detail30execution_context_service_baseINS1_9schedulerEE2idE
0000000000383cf0 u _ZGVZN5boost6system6detail15to_std_categoryERKNS0_14error_categoryEE15system_instance
0000000000383cd0 u _ZGVZN5boost6system6detail15to_std_categoryERKNS0_14error_categoryEE16generic_instance
0000000000383c88 u _ZGVZN5boost6system6detail15to_std_categoryERKNS0_14error_categoryEE4map_
                 U _ZlsRSoPK12__mpz_struct
000000000007a1a0 T _ZN10ABYCircuit10PutINVGateEj
000000000007a5e0 T _ZN10ABYCircuit10PutOUTGateEj6e_rolej
000000000007a6b0 T _ZN10ABYCircuit10PutOUTGateESt6vectorIjSaIjEE6e_rolej
000000000007aaf0 T _ZN10ABYCircuit11PutCONVGateESt6vectorIjSaIjEEj9e_sharingj
000000000007b070 T _ZN10ABYCircuit13PutAssertGateESt6vectorIjSaIjEEjPm
0000000000079dc0 T _ZN10ABYCircuit13PutSubsetGateEjPjjb
000000000007a7b0 T _ZN10ABYCircuit15PutCallbackGateESt6vectorIjSaIjEEjPFvP4GATEPvES5_j
000000000007ae80 T _ZN10ABYCircuit15PutCombinerGateESt6vectorIjSaIjEE
0000000000079d20 T _ZN10ABYCircuit15PutConstantGateE9e_sharingmjj
000000000007b440 T _ZN10ABYCircuit15PutPrintValGateESt6vectorIjSaIjEESs
000000000007a260 T _ZN10ABYCircuit15PutRepeaterGateEjj
000000000007a340 T _ZN10ABYCircuit15PutRepeaterGateESt6vectorIjSaIjEEj
0000000000079bc0 T _ZN10ABYCircuit15PutSharedINGateE9e_sharingjj
000000000007a0e0 T _ZN10ABYCircuit15PutSplitterGateEjjj
000000000007bb40 T _ZN10ABYCircuit15PutSplitterGateEjSt6vectorIjSaIjEE
000000000007b8c0 T _ZN10ABYCircuit16PutPrimitiveGateE10e_gatetypejjj
000000000007a430 T _ZN10ABYCircuit16PutSharedOUTGateEj
000000000007a500 T _ZN10ABYCircuit16PutSharedOUTGateESt6vectorIjSaIjEE
0000000000079930 T _ZN10ABYCircuit16PutUniversalGateEjjjj
0000000000079ee0 T _ZN10ABYCircuit17PutTruthTableGateESt6vectorIjSaIjEEjjPm
000000000007b250 T _ZN10ABYCircuit18PutPermutationGateESt6vectorIjSaIjEEPj
000000000007acd0 T _ZN10ABYCircuit19PutCombineAtPosGateESt6vectorIjSaIjEEj
000000000007b650 T _ZN10ABYCircuit22PutNonLinearVectorGateE10e_gatetypejjj
0000000000078440 T _ZN10ABYCircuit25CheckAndPropagateConstantEjRjRSt6vectorIiSaIiEES4_RSt14basic_ofstreamIcSt11char_traitsIcEE
00000000000786c0 T _ZN10ABYCircuit25ExportGateInBristolFormatEjRjRSt6vectorIiSaIiEES4_RSt14basic_ofstreamIcSt11char_traitsIcEE
000000000007a950 T _ZN10ABYCircuit27PutStructurizedCombinerGateESt6vectorIjSaIjEEjjj
0000000000078a70 T _ZN10ABYCircuit28ExportCircuitInBristolFormatESt6vectorIjSaIjEES2_S2_PKc
0000000000078690 T _ZN10ABYCircuit5ResetEv
00000000000786b0 T _ZN10ABYCircuit7CleanupEv
0000000000079c70 T _ZN10ABYCircuit9PutINGateE9e_sharingjj6e_rolej
00000000000783a0 T _ZN10ABYCircuitC1Ej
00000000000783a0 T _ZN10ABYCircuitC2Ej
0000000000073080 W _ZN10ABYCircuitD0Ev
0000000000073040 W _ZN10ABYCircuitD1Ev
0000000000073040 W _ZN10ABYCircuitD2Ev
00000000000850c0 T _ZN10arithshare19get_clear_value_ptrEv
0000000000085170 T _ZN10arithshare19get_clear_value_vecEPPjS0_S0_
00000000000852e0 T _ZN10arithshare19get_clear_value_vecEPPmPjS2_
0000000000085c70 T _ZN10arithshare22get_share_from_wire_idEj
0000000000085d30 W _ZN10arithshareD0Ev
0000000000085cd0 W _ZN10arithshareD1Ev
0000000000085cd0 W _ZN10arithshareD2Ev
00000000000d18c0 T _ZN10CBitVector11CreateBytesEm
00000000000d1950 T _ZN10CBitVector11CreateBytesEmP6crypto
00000000000d17d0 T _ZN10CBitVector11CreateExactEm
00000000000d18d0 T _ZN10CBitVector11CreateZerosEm
00000000000d37c0 T _ZN10CBitVector11PrintBinaryEv
00000000000d1b00 T _ZN10CBitVector11ResetFromToEmm
00000000000d37e0 T _ZN10CBitVector12PrintContentEv
00000000000d1d00 T _ZN10CBitVector12SetBitNoMaskEmh
00000000000d1d30 T _ZN10CBitVector12XORBitNoMaskEmh
00000000000d1790 T _ZN10CBitVector13delCBitVectorEv
00000000000d1a90 T _ZN10CBitVector13ResizeinBytesEm
00000000000d2670 T _ZN10CBitVector13SetBitsToZeroEmm
00000000000d2660 T _ZN10CBitVector14SetBytesToZeroEmm
00000000000d3ae0 T _ZN10CBitVector15SimpleTransposeEmm
00000000000d2cb0 T _ZN10CBitVector15XORBytesReverseEPKhmm
00000000000d21c0 T _ZN10CBitVector16SetBitsPosOffsetEPKhmmm
00000000000d1b70 T _ZN10CBitVector16SetElementLengthEm
00000000000d2c40 T _ZN10CBitVector16XORBitsPosOffsetEPKhmmm
00000000000d3a10 T _ZN10CBitVector17PrintBinaryMaskedEmm
00000000000d3bb0 T _ZN10CBitVector19EklundhBitTransposeEmm
00000000000d3380 T _ZN10CBitVector3ANDEPKS_
00000000000d3350 T _ZN10CBitVector3XOREPKS_
00000000000d1b90 T _ZN10CBitVector4CopyEPKhmm
00000000000d32b0 T _ZN10CBitVector4CopyERKS_
00000000000d32f0 T _ZN10CBitVector4CopyERKS_mm
00000000000d1770 T _ZN10CBitVector4InitEv
00000000000d33d0 T _ZN10CBitVector5PrintEmm
00000000000d1ae0 T _ZN10CBitVector5ResetEv
00000000000d1840 T _ZN10CBitVector6CreateEm
00000000000d1960 T _ZN10CBitVector6CreateEmm
00000000000d19f0 T _ZN10CBitVector6CreateEmmm
00000000000d1a40 T _ZN10CBitVector6CreateEmmmP6crypto
00000000000d19a0 T _ZN10CBitVector6CreateEmmP6crypto
00000000000d18f0 T _ZN10CBitVector6CreateEmP6crypto
00000000000d3220 T _ZN10CBitVector6GetArrEv
00000000000d1b30 T _ZN10CBitVector6InvertEv
00000000000d1bf0 T _ZN10CBitVector6ORByteEmh
00000000000d2fc0 T _ZN10CBitVector6SetANDEPKhS1_mm
00000000000d1cb0 T _ZN10CBitVector6SetBitEmh
00000000000d2f80 T _ZN10CBitVector6SetXOREPKhS1_mm
00000000000d1d90 T _ZN10CBitVector7ANDByteEmh
00000000000d3000 T _ZN10CBitVector7CLShiftEm
00000000000d24b0 T _ZN10CBitVector7SetBitsEPKhmm
00000000000d1d60 T _ZN10CBitVector7SetByteEmh
00000000000d2b10 T _ZN10CBitVector7XORBitsEPKhmm
00000000000d1d80 T _ZN10CBitVector7XORByteEmh
00000000000d2cf0 T _ZN10CBitVector8ANDBytesEPKhmm
00000000000d1880 T _ZN10CBitVector8FillRandEmP6crypto
00000000000d34a0 T _ZN10CBitVector8PrintHexEb
00000000000d3620 T _ZN10CBitVector8PrintHexEmmb
00000000000d2240 T _ZN10CBitVector8SetBytesEPKhmm
00000000000d1b10 T _ZN10CBitVector8SetToOneEv
00000000000d2b00 T _ZN10CBitVector8XORBytesEPKhm
00000000000d2740 T _ZN10CBitVector8XORBytesEPKhmm
00000000000d33b0 T _ZN10CBitVector9AttachBufEPhm
00000000000d33c0 T _ZN10CBitVector9DetachBufEv
00000000000d4310 T _ZN10CBitVector9TransposeEmm
00000000000d3320 T _ZN10CBitVector9XORVectorERKS_mm
00000000000d1850 T _ZN10CBitVectorC1Em
00000000000d1920 T _ZN10CBitVectorC1EmP6crypto
00000000000d1780 T _ZN10CBitVectorC1Ev
00000000000d1850 T _ZN10CBitVectorC2Em
00000000000d1920 T _ZN10CBitVectorC2EmP6crypto
00000000000d1780 T _ZN10CBitVectorC2Ev
00000000000d17c0 T _ZN10CBitVectorD1Ev
00000000000d17c0 T _ZN10CBitVectorD2Ev
000000000011c260 T _ZN10NaorPinkas6SenderEjjP7channelPh
000000000011bd10 T _ZN10NaorPinkas8ReceiverEjjP10CBitVectorP7channelPh
000000000011c900 W _ZN10NaorPinkasD0Ev
000000000011c8d0 W _ZN10NaorPinkasD1Ev
000000000011c8d0 W _ZN10NaorPinkasD2Ev
0000000000089160 W _ZN10XORMasking10expandMaskEP10CBitVectorPhjjjP6crypto
00000000000893b0 W _ZN10XORMasking4MaskEjjPP10CBitVectorS1_13snd_ot_flavor
0000000000088d50 W _ZN10XORMasking6UnMaskEjjP10CBitVectorS1_S1_S1_13snd_ot_flavor
0000000000077320 W _ZN10XORMaskingD0Ev
00000000000773a0 W _ZN10XORMaskingD1Ev
00000000000773a0 W _ZN10XORMaskingD2Ev
00000000000ba260 W _ZN10YaoKeyXXLT10XOR_QUAD_BEPhS0_S0_
00000000000ba1f0 W _ZN10YaoKeyXXLT12XOR_DOUBLE_BEPhS0_S0_
00000000000ba1c0 W _ZN10YaoKeyXXLT3XOREPhS0_S0_
00000000000ba2d0 W _ZN10YaoKeyXXLTD0Ev
00000000000ba1b0 W _ZN10YaoKeyXXLTD1Ev
00000000000ba1b0 W _ZN10YaoKeyXXLTD2Ev
00000000000b95c0 T _ZN10YaoSharing11EncryptWireEPhS0_j
00000000000b9650 T _ZN10YaoSharing15EncryptWireGRR3EPhS0_S0_S0_j
00000000000b2530 W _ZN10YaoSharing19PreComputationPhaseEv
00000000000b2560 W _ZN10YaoSharing22GetCircuitBuildRoutineEv
00000000000b2540 W _ZN10YaoSharing25GetMaxCommunicationRoundsEv
00000000000b2550 W _ZN10YaoSharing25GetNumNonLinearOperationsEv
00000000000b9820 T _ZN10YaoSharing26PrintPerformanceStatisticsEv
00000000000b9a40 T _ZN10YaoSharing4InitEv
00000000000b9710 T _ZN10YaoSharing8PrintKeyEPh
00000000000b95a0 T _ZN10YaoSharingD0Ev
00000000000b90d0 T _ZN10YaoSharingD1Ev
00000000000b90d0 T _ZN10YaoSharingD2Ev
000000000009b0e0 T _ZN11BoolSharing10ComputeMTsEv
000000000009ed80 T _ZN11BoolSharing11AssignInputER10CBitVector
000000000009b400 T _ZN11BoolSharing11EvaluateMTsEv
000000000009af90 T _ZN11BoolSharing12InitNewLayerEv
00000000000a2820 W _ZN11BoolSharing12sharing_typeEv
000000000009fbf0 T _ZN11BoolSharing13GetDataToSendERSt6vectorIPhSaIS1_EERS0_ImSaImEE
000000000009da70 T _ZN11BoolSharing13InitializeMTsEv
000000000009cb20 T _ZN11BoolSharing14StoreMTsToFileEPKc
000000000009bb30 T _ZN11BoolSharing15EvaluateANDGateEv
00000000000a2830 W _ZN11BoolSharing15InstantiateGateEP4GATE
000000000009c6e0 T _ZN11BoolSharing15ReadMTsFromFileEPKc
000000000009c0a0 T _ZN11BoolSharing16EvaluateSIMDGateEj
000000000009a9e0 T _ZN11BoolSharing16FinishSetupPhaseEP8ABYSetup
00000000000a28a0 W _ZN11BoolSharing16ReconstructValueEj
000000000009bd50 T _ZN11BoolSharing17AssignInputSharesEv
000000000009a990 T _ZN11BoolSharing17PerformSetupPhaseEP8ABYSetup
00000000000a1660 T _ZN11BoolSharing17PrepareSetupPhaseEP8ABYSetup
000000000009bec0 T _ZN11BoolSharing18AssignOutputSharesEv
000000000009f180 T _ZN11BoolSharing18EvaluateOPLUTGatesEv
000000000009fbb0 T _ZN11BoolSharing18FinishCircuitLayerEv
000000000009dd80 T _ZN11BoolSharing18PrepareOnlinePhaseEv
000000000009ff00 T _ZN11BoolSharing19GetBuffersToReceiveERSt6vectorIPhSaIS1_EERS0_ImSaImEE
000000000009cf20 T _ZN11BoolSharing19PreComputationPhaseEv
000000000009d8d0 T _ZN11BoolSharing20PrepareSetupPhaseMTsEP8ABYSetup
00000000000a2800 W _ZN11BoolSharing22GetCircuitBuildRoutineEv
00000000000a03d0 T _ZN11BoolSharing22PrepareSetupPhaseOPLUTEP8ABYSetup
000000000009e4e0 T _ZN11BoolSharing23EvaluateLocalOperationsEj
00000000000a2810 W _ZN11BoolSharing25GetMaxCommunicationRoundsEv
00000000000a2860 W _ZN11BoolSharing25GetNumNonLinearOperationsEv
000000000009abf0 T _ZN11BoolSharing26PrintPerformanceStatisticsEv
00000000000a1970 T _ZN11BoolSharing29EvaluateInteractiveOperationsEj
000000000009ccc0 T _ZN11BoolSharing45isCircuitSizeLessThanOrEqualWithValueFromFileEPcj
000000000009dea0 T _ZN11BoolSharing4InitEv
000000000009d330 T _ZN11BoolSharing5ResetEv
000000000009efc0 T _ZN11BoolSharing9GetOutputER10CBitVector
00000000000a3e50 W _ZN11BoolSharingD0Ev
00000000000a3720 W _ZN11BoolSharingD1Ev
00000000000a3720 W _ZN11BoolSharingD2Ev
000000000006ee60 W _ZN11parsing_ctxD1Ev
000000000006ee60 W _ZN11parsing_ctxD2Ev
00000000000da940 T _ZN11prime_field10get_rnd_feEv
00000000000da430 T _ZN11prime_field11get_rnd_numEj
00000000000da9c0 T _ZN11prime_field13get_generatorEv
00000000000db020 W _ZN11prime_field13num_byte_sizeEv
00000000000db030 W _ZN11prime_field14get_field_sizeEv
00000000000daa00 T _ZN11prime_field17get_rnd_generatorEv
00000000000da4b0 T _ZN11prime_field4initE14SECURITYLEVELSPh
00000000000daaf0 T _ZN11prime_field5get_pEv
00000000000da8c0 T _ZN11prime_field6get_feEv
00000000000da3b0 T _ZN11prime_field7get_numEv
00000000000dae10 T _ZN11prime_field8get_sizeEv
00000000000daf00 T _ZN11prime_field9get_brickEP2fe
00000000000da760 T _ZN11prime_field9get_orderEv
00000000000da2f0 T _ZN11prime_fieldD0Ev
00000000000da280 T _ZN11prime_fieldD1Ev
00000000000da280 T _ZN11prime_fieldD2Ev
0000000000091d40 W _ZN12ArithSharingIhE11AssignInputER10CBitVector
000000000008bc50 W _ZN12ArithSharingIhE11EvaluateMTsEv
000000000008b8a0 W _ZN12ArithSharingIhE11ShareValuesEP4GATE
000000000008c940 W _ZN12ArithSharingIhE12InitNewLayerEv
0000000000072fa0 W _ZN12ArithSharingIhE12sharing_typeEv
00000000000998e0 W _ZN12ArithSharingIhE13GetDataToSendERSt6vectorIPhSaIS2_EERS1_ImSaImEE
00000000000954e0 W _ZN12ArithSharingIhE13SelectiveOpenEP4GATE
000000000008be80 W _ZN12ArithSharingIhE15EvaluateADDGateEP4GATE
000000000008b830 W _ZN12ArithSharingIhE15EvaluateINVGateEP4GATE
000000000008bfc0 W _ZN12ArithSharingIhE15EvaluateMULGateEv
0000000000088cd0 W _ZN12ArithSharingIhE15InstantiateGateEP4GATE
0000000000095080 W _ZN12ArithSharingIhE16EvaluateCONVGateEP4GATE
000000000008b4d0 W _ZN12ArithSharingIhE16EvaluateSIMDGateEj
000000000008c910 W _ZN12ArithSharingIhE16FinishSetupPhaseEP8ABYSetup
000000000008b980 W _ZN12ArithSharingIhE16ReconstructValueEP4GATE
000000000008ba40 W _ZN12ArithSharingIhE17AssignInputSharesEv
000000000008c6e0 W _ZN12ArithSharingIhE17ComputeMTsFromOTsEv
0000000000088250 W _ZN12ArithSharingIhE17PerformSetupPhaseEP8ABYSetup
00000000000966a0 W _ZN12ArithSharingIhE17PrepareSetupPhaseEP8ABYSetup
000000000008bb20 W _ZN12ArithSharingIhE18AssignOutputSharesEv
0000000000091630 W _ZN12ArithSharingIhE18FinishCircuitLayerEv
000000000008c830 W _ZN12ArithSharingIhE18FinishMTGenerationEv
000000000008c9e0 W _ZN12ArithSharingIhE18PrepareOnlinePhaseEv
0000000000099aa0 W _ZN12ArithSharingIhE19GetBuffersToReceiveERSt6vectorIPhSaIS2_EERS1_ImSaImEE
0000000000072fc0 W _ZN12ArithSharingIhE19PreComputationPhaseEv
000000000008be30 W _ZN12ArithSharingIhE20EvaluateConstantGateEP4GATE
000000000008bf20 W _ZN12ArithSharingIhE20EvaluateMULCONSTGateEP4GATE
0000000000091590 W _ZN12ArithSharingIhE22AssignConversionSharesEv
0000000000072fb0 W _ZN12ArithSharingIhE22GetCircuitBuildRoutineEv
0000000000097580 W _ZN12ArithSharingIhE23EvaluateLocalOperationsEj
0000000000072f80 W _ZN12ArithSharingIhE25GetMaxCommunicationRoundsEv
0000000000072f90 W _ZN12ArithSharingIhE25GetNumNonLinearOperationsEv
0000000000089d70 W _ZN12ArithSharingIhE26PrintPerformanceStatisticsEv
000000000008c450 W _ZN12ArithSharingIhE28AssignClientConversionSharesEv
000000000008c0c0 W _ZN12ArithSharingIhE28AssignServerConversionSharesEv
0000000000098580 W _ZN12ArithSharingIhE29EvaluateInteractiveOperationsEj
0000000000093980 W _ZN12ArithSharingIhE4InitEv
0000000000088450 W _ZN12ArithSharingIhE5ResetEv
0000000000095e30 W _ZN12ArithSharingIhE7InitMTsEv
0000000000092880 W _ZN12ArithSharingIhE9GetOutputER10CBitVector
0000000000093c60 W _ZN12ArithSharingIhEC1E9e_sharing6e_rolejP10ABYCircuitP6crypto12e_mt_gen_alg
0000000000093c60 W _ZN12ArithSharingIhEC2E9e_sharing6e_rolejP10ABYCircuitP6crypto12e_mt_gen_alg
0000000000073b60 W _ZN12ArithSharingIhED0Ev
0000000000073990 W _ZN12ArithSharingIhED1Ev
0000000000073990 W _ZN12ArithSharingIhED2Ev
00000000000922e0 W _ZN12ArithSharingIjE11AssignInputER10CBitVector
000000000008ec60 W _ZN12ArithSharingIjE11EvaluateMTsEv
000000000008e8c0 W _ZN12ArithSharingIjE11ShareValuesEP4GATE
000000000008f990 W _ZN12ArithSharingIjE12InitNewLayerEv
0000000000072f00 W _ZN12ArithSharingIjE12sharing_typeEv
000000000009a130 W _ZN12ArithSharingIjE13GetDataToSendERSt6vectorIPhSaIS2_EERS1_ImSaImEE
00000000000956a0 W _ZN12ArithSharingIjE13SelectiveOpenEP4GATE
000000000008eea0 W _ZN12ArithSharingIjE15EvaluateADDGateEP4GATE
000000000008e860 W _ZN12ArithSharingIjE15EvaluateINVGateEP4GATE
000000000008efe0 W _ZN12ArithSharingIjE15EvaluateMULGateEv
0000000000088d10 W _ZN12ArithSharingIjE15InstantiateGateEP4GATE
00000000000952b0 W _ZN12ArithSharingIjE16EvaluateCONVGateEP4GATE
000000000008e530 W _ZN12ArithSharingIjE16EvaluateSIMDGateEj
000000000008f960 W _ZN12ArithSharingIjE16FinishSetupPhaseEP8ABYSetup
000000000008e9a0 W _ZN12ArithSharingIjE16ReconstructValueEP4GATE
000000000008ea50 W _ZN12ArithSharingIjE17AssignInputSharesEv
000000000008f720 W _ZN12ArithSharingIjE17ComputeMTsFromOTsEv
0000000000088270 W _ZN12ArithSharingIjE17PerformSetupPhaseEP8ABYSetup
0000000000096dc0 W _ZN12ArithSharingIjE17PrepareSetupPhaseEP8ABYSetup
000000000008eb30 W _ZN12ArithSharingIjE18AssignOutputSharesEv
00000000000917f0 W _ZN12ArithSharingIjE18FinishCircuitLayerEv
000000000008f880 W _ZN12ArithSharingIjE18FinishMTGenerationEv
000000000008fa30 W _ZN12ArithSharingIjE18PrepareOnlinePhaseEv
000000000009a300 W _ZN12ArithSharingIjE19GetBuffersToReceiveERSt6vectorIPhSaIS2_EERS1_ImSaImEE
0000000000072f20 W _ZN12ArithSharingIjE19PreComputationPhaseEv
000000000008ee50 W _ZN12ArithSharingIjE20EvaluateConstantGateEP4GATE
000000000008ef30 W _ZN12ArithSharingIjE20EvaluateMULCONSTGateEP4GATE
0000000000091750 W _ZN12ArithSharingIjE22AssignConversionSharesEv
0000000000072f10 W _ZN12ArithSharingIjE22GetCircuitBuildRoutineEv
0000000000097d80 W _ZN12ArithSharingIjE23EvaluateLocalOperationsEj
0000000000072ee0 W _ZN12ArithSharingIjE25GetMaxCommunicationRoundsEv
0000000000072ef0 W _ZN12ArithSharingIjE25GetNumNonLinearOperationsEv
000000000008a010 W _ZN12ArithSharingIjE26PrintPerformanceStatisticsEv
000000000008f480 W _ZN12ArithSharingIjE28AssignClientConversionSharesEv
000000000008f0e0 W _ZN12ArithSharingIjE28AssignServerConversionSharesEv
0000000000098da0 W _ZN12ArithSharingIjE29EvaluateInteractiveOperationsEj
0000000000091910 W _ZN12ArithSharingIjE4InitEv
0000000000088890 W _ZN12ArithSharingIjE5ResetEv
0000000000096130 W _ZN12ArithSharingIjE7InitMTsEv
0000000000092cc0 W _ZN12ArithSharingIjE9GetOutputER10CBitVector
0000000000074630 W _ZN12ArithSharingIjEC1E9e_sharing6e_rolejP10ABYCircuitP6crypto12e_mt_gen_alg
0000000000074630 W _ZN12ArithSharingIjEC2E9e_sharing6e_rolejP10ABYCircuitP6crypto12e_mt_gen_alg
0000000000073780 W _ZN12ArithSharingIjED0Ev
00000000000735b0 W _ZN12ArithSharingIjED1Ev
00000000000735b0 W _ZN12ArithSharingIjED2Ev
00000000000925b0 W _ZN12ArithSharingImE11AssignInputER10CBitVector
0000000000090250 W _ZN12ArithSharingImE11EvaluateMTsEv
000000000008fe80 W _ZN12ArithSharingImE11ShareValuesEP4GATE
0000000000090fe0 W _ZN12ArithSharingImE12InitNewLayerEv
0000000000072eb0 W _ZN12ArithSharingImE12sharing_typeEv
000000000009a560 W _ZN12ArithSharingImE13GetDataToSendERSt6vectorIPhSaIS2_EERS1_ImSaImEE
0000000000095860 W _ZN12ArithSharingImE13SelectiveOpenEP4GATE
00000000000904e0 W _ZN12ArithSharingImE15EvaluateADDGateEP4GATE
000000000008fe10 W _ZN12ArithSharingImE15EvaluateINVGateEP4GATE
0000000000090620 W _ZN12ArithSharingImE15EvaluateMULGateEv
0000000000088d30 W _ZN12ArithSharingImE15InstantiateGateEP4GATE
0000000000094c20 W _ZN12ArithSharingImE16EvaluateCONVGateEP4GATE
000000000008fad0 W _ZN12ArithSharingImE16EvaluateSIMDGateEj
0000000000090fb0 W _ZN12ArithSharingImE16FinishSetupPhaseEP8ABYSetup
000000000008ff70 W _ZN12ArithSharingImE16ReconstructValueEP4GATE
0000000000090030 W _ZN12ArithSharingImE17AssignInputSharesEv
0000000000090d70 W _ZN12ArithSharingImE17ComputeMTsFromOTsEv
0000000000088280 W _ZN12ArithSharingImE17PerformSetupPhaseEP8ABYSetup
0000000000097150 W _ZN12ArithSharingImE17PrepareSetupPhaseEP8ABYSetup
0000000000090120 W _ZN12ArithSharingImE18AssignOutputSharesEv
00000000000918d0 W _ZN12ArithSharingImE18FinishCircuitLayerEv
0000000000090ed0 W _ZN12ArithSharingImE18FinishMTGenerationEv
0000000000091080 W _ZN12ArithSharingImE18PrepareOnlinePhaseEv
000000000009a730 W _ZN12ArithSharingImE19GetBuffersToReceiveERSt6vectorIPhSaIS2_EERS1_ImSaImEE
0000000000072ed0 W _ZN12ArithSharingImE19PreComputationPhaseEv
0000000000090450 W _ZN12ArithSharingImE20EvaluateConstantGateEP4GATE
0000000000090570 W _ZN12ArithSharingImE20EvaluateMULCONSTGateEP4GATE
0000000000091830 W _ZN12ArithSharingImE22AssignConversionSharesEv
0000000000072ec0 W _ZN12ArithSharingImE22GetCircuitBuildRoutineEv
0000000000098180 W _ZN12ArithSharingImE23EvaluateLocalOperationsEj
0000000000072e90 W _ZN12ArithSharingImE25GetMaxCommunicationRoundsEv
0000000000072ea0 W _ZN12ArithSharingImE25GetNumNonLinearOperationsEv
0000000000089e50 W _ZN12ArithSharingImE26PrintPerformanceStatisticsEv
0000000000090ad0 W _ZN12ArithSharingImE28AssignClientConversionSharesEv
0000000000090720 W _ZN12ArithSharingImE28AssignServerConversionSharesEv
00000000000991b0 W _ZN12ArithSharingImE29EvaluateInteractiveOperationsEj
0000000000093100 W _ZN12ArithSharingImE4InitEv
0000000000088ab0 W _ZN12ArithSharingImE5ResetEv
00000000000962b0 W _ZN12ArithSharingImE7InitMTsEv
0000000000092ee0 W _ZN12ArithSharingImE9GetOutputER10CBitVector
00000000000933d0 W _ZN12ArithSharingImEC1E9e_sharing6e_rolejP10ABYCircuitP6crypto12e_mt_gen_alg
00000000000933d0 W _ZN12ArithSharingImEC2E9e_sharing6e_rolejP10ABYCircuitP6crypto12e_mt_gen_alg
0000000000074450 W _ZN12ArithSharingImED0Ev
00000000000733e0 W _ZN12ArithSharingImED1Ev
00000000000733e0 W _ZN12ArithSharingImED2Ev
0000000000092010 W _ZN12ArithSharingItE11AssignInputER10CBitVector
000000000008d3d0 W _ZN12ArithSharingItE11EvaluateMTsEv
000000000008d010 W _ZN12ArithSharingItE11ShareValuesEP4GATE
000000000008e3f0 W _ZN12ArithSharingItE12InitNewLayerEv
0000000000072f50 W _ZN12ArithSharingItE12sharing_typeEv
0000000000099d00 W _ZN12ArithSharingItE13GetDataToSendERSt6vectorIPhSaIS2_EERS1_ImSaImEE
0000000000095a30 W _ZN12ArithSharingItE13SelectiveOpenEP4GATE
000000000008d6b0 W _ZN12ArithSharingItE15EvaluateADDGateEP4GATE
000000000008ce90 W _ZN12ArithSharingItE15EvaluateINVGateEP4GATE
000000000008da10 W _ZN12ArithSharingItE15EvaluateMULGateEv
0000000000088cf0 W _ZN12ArithSharingItE15InstantiateGateEP4GATE
0000000000094e50 W _ZN12ArithSharingItE16EvaluateCONVGateEP4GATE
000000000008ca80 W _ZN12ArithSharingItE16EvaluateSIMDGateEj
000000000008e3c0 W _ZN12ArithSharingItE16FinishSetupPhaseEP8ABYSetup
000000000008d100 W _ZN12ArithSharingItE16ReconstructValueEP4GATE
000000000008d1c0 W _ZN12ArithSharingItE17AssignInputSharesEv
000000000008e180 W _ZN12ArithSharingItE17ComputeMTsFromOTsEv
0000000000088260 W _ZN12ArithSharingItE17PerformSetupPhaseEP8ABYSetup
0000000000096a30 W _ZN12ArithSharingItE17PrepareSetupPhaseEP8ABYSetup
000000000008d2a0 W _ZN12ArithSharingItE18AssignOutputSharesEv
0000000000091710 W _ZN12ArithSharingItE18FinishCircuitLayerEv
000000000008e2e0 W _ZN12ArithSharingItE18FinishMTGenerationEv
000000000008e490 W _ZN12ArithSharingItE18PrepareOnlinePhaseEv
0000000000099ed0 W _ZN12ArithSharingItE19GetBuffersToReceiveERSt6vectorIPhSaIS2_EERS1_ImSaImEE
0000000000072f70 W _ZN12ArithSharingItE19PreComputationPhaseEv
000000000008d5d0 W _ZN12ArithSharingItE20EvaluateConstantGateEP4GATE
000000000008d860 W _ZN12ArithSharingItE20EvaluateMULCONSTGateEP4GATE
0000000000091670 W _ZN12ArithSharingItE22AssignConversionSharesEv
0000000000072f60 W _ZN12ArithSharingItE22GetCircuitBuildRoutineEv
0000000000097980 W _ZN12ArithSharingItE23EvaluateLocalOperationsEj
0000000000072f30 W _ZN12ArithSharingItE25GetMaxCommunicationRoundsEv
0000000000072f40 W _ZN12ArithSharingItE25GetNumNonLinearOperationsEv
0000000000089f30 W _ZN12ArithSharingItE26PrintPerformanceStatisticsEv
000000000008deb0 W _ZN12ArithSharingItE28AssignClientConversionSharesEv
000000000008db10 W _ZN12ArithSharingItE28AssignServerConversionSharesEv
0000000000098990 W _ZN12ArithSharingItE29EvaluateInteractiveOperationsEj
0000000000094210 W _ZN12ArithSharingItE4InitEv
0000000000088670 W _ZN12ArithSharingItE5ResetEv
0000000000095fb0 W _ZN12ArithSharingItE7InitMTsEv
0000000000092aa0 W _ZN12ArithSharingItE9GetOutputER10CBitVector
00000000000944f0 W _ZN12ArithSharingItEC1E9e_sharing6e_rolejP10ABYCircuitP6crypto12e_mt_gen_alg
00000000000944f0 W _ZN12ArithSharingItEC2E9e_sharing6e_rolejP10ABYCircuitP6crypto12e_mt_gen_alg
0000000000073970 W _ZN12ArithSharingItED0Ev
00000000000737a0 W _ZN12ArithSharingItED1Ev
00000000000737a0 W _ZN12ArithSharingItED2Ev
00000000000d9b70 T _ZN12ecc_brickexp3powEP2feP3num
00000000000d9fb0 T _ZN12ecc_brickexpC1EP2feP9ecc_field
00000000000d9fb0 T _ZN12ecc_brickexpC2EP2feP9ecc_field
00000000000d8c20 T _ZN12ecc_brickexpD0Ev
00000000000d8ba0 T _ZN12ecc_brickexpD1Ev
00000000000d8ba0 T _ZN12ecc_brickexpD2Ev
00000000000dac60 T _ZN12gmp_brickexp3powEP2feP3num
00000000000dae20 T _ZN12gmp_brickexp4initEP2feP11prime_field
00000000000da1e0 T _ZN12gmp_brickexpD0Ev
00000000000da190 T _ZN12gmp_brickexpD1Ev
00000000000da190 T _ZN12gmp_brickexpD2Ev
000000000011acc0 T _ZN12IKNPOTExtRec14ComputeBaseOTsE10field_type
000000000011ad40 T _ZN12IKNPOTExtRec16receiver_routineEjm
000000000011b4f0 W _ZN12IKNPOTExtRecD0Ev
000000000011b3e0 W _ZN12IKNPOTExtRecD1Ev
000000000011b3e0 W _ZN12IKNPOTExtRecD2Ev
000000000011bc40 T _ZN12IKNPOTExtSnd14ComputeBaseOTsE10field_type
000000000011b5f0 T _ZN12IKNPOTExtSnd14sender_routineEjm
000000000011bce0 W _ZN12IKNPOTExtSndD0Ev
000000000011bcc0 W _ZN12IKNPOTExtSndD1Ev
000000000011bcc0 W _ZN12IKNPOTExtSndD2Ev
00000000000895b0 W _ZN14ArithMTMaskingIhE10expandMaskEP10CBitVectorPhjjjP6crypto
000000000008a390 W _ZN14ArithMTMaskingIhE4MaskEjjPP10CBitVectorS2_13snd_ot_flavor
000000000008a0f0 W _ZN14ArithMTMaskingIhE6UnMaskEjjP10CBitVectorS2_S2_S2_13snd_ot_flavor
0000000000089c90 W _ZN14ArithMTMaskingIhED0Ev
0000000000088290 W _ZN14ArithMTMaskingIhED1Ev
0000000000088290 W _ZN14ArithMTMaskingIhED2Ev
00000000000898b0 W _ZN14ArithMTMaskingIjE10expandMaskEP10CBitVectorPhjjjP6crypto
000000000008ad80 W _ZN14ArithMTMaskingIjE4MaskEjjPP10CBitVectorS2_13snd_ot_flavor
000000000008aad0 W _ZN14ArithMTMaskingIjE6UnMaskEjjP10CBitVectorS2_S2_S2_13snd_ot_flavor
0000000000089d00 W _ZN14ArithMTMaskingIjED0Ev
0000000000088370 W _ZN14ArithMTMaskingIjED1Ev
0000000000088370 W _ZN14ArithMTMaskingIjED2Ev
0000000000089a30 W _ZN14ArithMTMaskingImE10expandMaskEP10CBitVectorPhjjjP6crypto
000000000008b270 W _ZN14ArithMTMaskingImE4MaskEjjPP10CBitVectorS2_13snd_ot_flavor
000000000008afb0 W _ZN14ArithMTMaskingImE6UnMaskEjjP10CBitVectorS2_S2_S2_13snd_ot_flavor
0000000000089bb0 W _ZN14ArithMTMaskingImED0Ev
00000000000883e0 W _ZN14ArithMTMaskingImED1Ev
00000000000883e0 W _ZN14ArithMTMaskingImED2Ev
0000000000089730 W _ZN14ArithMTMaskingItE10expandMaskEP10CBitVectorPhjjjP6crypto
000000000008a870 W _ZN14ArithMTMaskingItE4MaskEjjPP10CBitVectorS2_13snd_ot_flavor
000000000008a5b0 W _ZN14ArithMTMaskingItE6UnMaskEjjP10CBitVectorS2_S2_S2_13snd_ot_flavor
0000000000089c20 W _ZN14ArithMTMaskingItED0Ev
0000000000088300 W _ZN14ArithMTMaskingItED1Ev
0000000000088300 W _ZN14ArithMTMaskingItED2Ev
00000000000c8890 T _ZN14BooleanCircuit10PutA2YGateEP5share
00000000000c8920 T _ZN14BooleanCircuit10PutADDGateEP5shareS1_
00000000000c84b0 T _ZN14BooleanCircuit10PutAddGateESt6vectorIjSaIjEES2_i
00000000000bef30 T _ZN14BooleanCircuit10PutANDGateEjj
00000000000c1b60 T _ZN14BooleanCircuit10PutANDGateEP5shareS1_
00000000000c1ad0 T _ZN14BooleanCircuit10PutANDGateESt6vectorIjSaIjEES2_
00000000000cdda0 W _ZN14BooleanCircuit10PutB2AGateEP5share
00000000000bc860 T _ZN14BooleanCircuit10PutB2YGateEP5share
00000000000bc420 T _ZN14BooleanCircuit10PutIdxGateEjj
00000000000ba5d0 T _ZN14BooleanCircuit10PutINVGateEj
00000000000bc390 T _ZN14BooleanCircuit10PutINVGateEP5share
00000000000bb250 T _ZN14BooleanCircuit10PutINVGateESt6vectorIjSaIjEE
00000000000bd020 T _ZN14BooleanCircuit10PutMaxGateEPP5sharej
00000000000bcd90 T _ZN14BooleanCircuit10PutMaxGateERKSt6vectorIP5shareSaIS2_EE
00000000000bcba0 T _ZN14BooleanCircuit10PutMaxGateERKSt6vectorIS0_IjSaIjEESaIS2_EE
00000000000c3ac0 T _ZN14BooleanCircuit10PutMinGateEPP5sharej
00000000000c3130 T _ZN14BooleanCircuit10PutMinGateESt6vectorIS0_IjSaIjEESaIS2_EE
00000000000c7170 T _ZN14BooleanCircuit10PutMULGateEP5shareS1_
00000000000c6aa0 T _ZN14BooleanCircuit10PutMulGateESt6vectorIjSaIjEES2_jbb
00000000000c2e60 T _ZN14BooleanCircuit10PutMUXGateEP5shareS1_S1_
00000000000c2c10 T _ZN14BooleanCircuit10PutMUXGateESt6vectorIjSaIjEES2_ji
00000000000bdb50 T _ZN14BooleanCircuit10PutOUTGateEj6e_role
00000000000be020 T _ZN14BooleanCircuit10PutOUTGateEP5share6e_role
00000000000bdd80 T _ZN14BooleanCircuit10PutOUTGateESt6vectorIjSaIjEE6e_role
00000000000c9550 T _ZN14BooleanCircuit10PutSUBGateEP5shareS1_
00000000000c9290 T _ZN14BooleanCircuit10PutSUBGateESt6vectorIjSaIjEES2_j
00000000000baf20 T _ZN14BooleanCircuit10PutXORGateEjj
00000000000c1a10 T _ZN14BooleanCircuit10PutXORGateEP5shareS1_
00000000000c1980 T _ZN14BooleanCircuit10PutXORGateESt6vectorIjSaIjEES2_
00000000000bc670 T _ZN14BooleanCircuit10PutY2BGateEP5share
00000000000ba2f0 T _ZN14BooleanCircuit11PutCONSGateEmj
00000000000ba310 T _ZN14BooleanCircuit11PutCONSGateEPhj
00000000000ba330 T _ZN14BooleanCircuit11PutCONSGateEPjj
00000000000c0c70 T _ZN14BooleanCircuit11PutELM0GateESt6vectorIjSaIjEEj
00000000000c0b10 T _ZN14BooleanCircuit11PutWideGateE10e_gatetypeSt6vectorIjSaIjEE
00000000000c10a0 T _ZN14BooleanCircuit12PutLUTGTGateESt6vectorIjSaIjEES2_
00000000000c08f0 T _ZN14BooleanCircuit12PutPreOrGateEP5share
00000000000c07a0 T _ZN14BooleanCircuit12PutPreOrGateESt6vectorIjSaIjEE
00000000000c0980 T _ZN14BooleanCircuit13PutANDVecGateEP5shareS1_
00000000000bf740 T _ZN14BooleanCircuit13PutCSNNetworkESt6vectorIS0_IjSaIjEESaIS2_EE
00000000000c76c0 T _ZN14BooleanCircuit13PutLUTAddGateESt6vectorIjSaIjEES2_i
00000000000c5ed0 T _ZN14BooleanCircuit13PutMaxIdxGateEPP5shareS2_jS2_S2_
00000000000c5040 T _ZN14BooleanCircuit13PutMaxIdxGateESt6vectorIS0_IjSaIjEESaIS2_EES4_RS2_S5_
00000000000c4bb0 T _ZN14BooleanCircuit13PutMinIdxGateEPP5shareS2_jS2_S2_
00000000000c3ca0 T _ZN14BooleanCircuit13PutMinIdxGateESt6vectorIS0_IjSaIjEESaIS2_EES4_RS2_S5_
00000000000bd7c0 T _ZN14BooleanCircuit13PutSIMDINGateEj6e_role
00000000000cf890 W _ZN14BooleanCircuit13PutSIMDINGateEjhj6e_role
00000000000cfa70 W _ZN14BooleanCircuit13PutSIMDINGateEjjj6e_role
00000000000bdac0 T _ZN14BooleanCircuit13PutSIMDINGateEjm6e_role
00000000000cfb60 W _ZN14BooleanCircuit13PutSIMDINGateEjmj6e_role
00000000000d0580 W _ZN14BooleanCircuit13PutSIMDINGateEjPhj6e_role
00000000000d0ab0 W _ZN14BooleanCircuit13PutSIMDINGateEjPjj6e_role
00000000000d08f0 W _ZN14BooleanCircuit13PutSIMDINGateEjPmj6e_role
00000000000d0730 W _ZN14BooleanCircuit13PutSIMDINGateEjPtj6e_role
00000000000cf980 W _ZN14BooleanCircuit13PutSIMDINGateEjtj6e_role
00000000000c85e0 T _ZN14BooleanCircuit14PutA2YCONVGateESt6vectorIjSaIjEE
00000000000bc700 T _ZN14BooleanCircuit14PutB2YCONVGateEj
00000000000bc7e0 T _ZN14BooleanCircuit14PutB2YCONVGateESt6vectorIjSaIjEE
00000000000bd670 T _ZN14BooleanCircuit14PutDummyINGateEj
00000000000cab40 T _ZN14BooleanCircuit14PutUint2FpGateESt6vectorIjSaIjEEP8UINTTypeP6FPTypej
00000000000c1e90 T _ZN14BooleanCircuit14PutWideAddGateESt6vectorIS0_IjSaIjEESaIS2_EE
00000000000bc520 T _ZN14BooleanCircuit14PutY2BCONVGateEj
00000000000bc5f0 T _ZN14BooleanCircuit14PutY2BCONVGateESt6vectorIjSaIjEE
00000000000ca4e0 T _ZN14BooleanCircuit15PutADDChainGateESt6vectorIjSaIjEES2_j
00000000000bc2f0 T _ZN14BooleanCircuit15PutCallbackGateEP5sharejPFvP4GATEPvES4_j
00000000000bc260 T _ZN14BooleanCircuit15PutCallbackGateESt6vectorIjSaIjEEjPFvP4GATEPvES5_j
00000000000c7550 T _ZN14BooleanCircuit15PutCondSwapGateEP5shareS1_S1_i
00000000000c7280 T _ZN14BooleanCircuit15PutCondSwapGateESt6vectorIjSaIjEES2_ji
00000000000ba590 T _ZN14BooleanCircuit15PutConstantGateEmj
00000000000cb4f0 T _ZN14BooleanCircuit15PutConvTypeGateEP5shareP8ConvTypeS3_j
00000000000cb420 T _ZN14BooleanCircuit15PutConvTypeGateESt6vectorIjSaIjEEP8ConvTypeS4_j
00000000000cc240 T _ZN14BooleanCircuit15PutGateFromFileESsSt6vectorIjSaIjEEj
00000000000c2910 T _ZN14BooleanCircuit15PutMultiMUXGateEPP5shareS2_S1_jS2_
00000000000cef10 W _ZN14BooleanCircuit15PutSharedINGateEhj
00000000000cee10 W _ZN14BooleanCircuit15PutSharedINGateEjj
00000000000bb000 T _ZN14BooleanCircuit15PutSharedINGateEm
00000000000cf1e0 W _ZN14BooleanCircuit15PutSharedINGateEmj
00000000000ce650 W _ZN14BooleanCircuit15PutSharedINGateEPhj
00000000000ce4e0 W _ZN14BooleanCircuit15PutSharedINGateEPjj
00000000000ce370 W _ZN14BooleanCircuit15PutSharedINGateEPmj
00000000000ce200 W _ZN14BooleanCircuit15PutSharedINGateEPtj
00000000000ceff0 W _ZN14BooleanCircuit15PutSharedINGateEtj
00000000000baf80 T _ZN14BooleanCircuit15PutSharedINGateEv
00000000000ba390 T _ZN14BooleanCircuit15PutSIMDCONSGateEjmj
00000000000ba430 T _ZN14BooleanCircuit15PutSIMDCONSGateEjPhj
00000000000ba4e0 T _ZN14BooleanCircuit15PutSIMDCONSGateEjPjj
00000000000bf440 T _ZN14BooleanCircuit16PutCarrySaveGateESt6vectorIjSaIjEES2_S2_jb
00000000000c0d00 T _ZN14BooleanCircuit16PutFullAdderGateEjjj
00000000000bc0a0 T _ZN14BooleanCircuit16PutSharedOUTGateEP5share
00000000000bc000 T _ZN14BooleanCircuit16PutSharedOUTGateESt6vectorIjSaIjEE
00000000000bf220 T _ZN14BooleanCircuit16PutUniversalGateEjjj
00000000000bf370 T _ZN14BooleanCircuit16PutUniversalGateEP5shareS1_j
00000000000bf2c0 T _ZN14BooleanCircuit16PutUniversalGateESt6vectorIjSaIjEES2_j
00000000000c0ac0 T _ZN14BooleanCircuit16PutVecANDMUXGateEjjj
00000000000c2820 T _ZN14BooleanCircuit16PutVecANDMUXGateEP5shareS1_S1_
00000000000c2770 T _ZN14BooleanCircuit16PutVecANDMUXGateESt6vectorIjSaIjEES2_S2_
00000000000badb0 T _ZN14BooleanCircuit16PutVectorANDGateEjj
00000000000cdc50 T _ZN14BooleanCircuit16UpdateLocalQueueEj
00000000000c1630 T _ZN14BooleanCircuit17PutLUTWideANDGateESt6vectorIjSaIjEE
00000000000c1590 T _ZN14BooleanCircuit17PutTruthTableGateEP5sharePm
00000000000bee90 T _ZN14BooleanCircuit17PutTruthTableGateESt6vectorIjSaIjEEjPm
00000000000bd9f0 T _ZN14BooleanCircuit18PutDummySIMDINGateEjj
00000000000bcae0 T _ZN14BooleanCircuit18PutLeftShifterGateEP5sharej
00000000000bb320 T _ZN14BooleanCircuit18PutLeftShifterGateESt6vectorIjSaIjEEjjj
00000000000cda40 T _ZN14BooleanCircuit18PutLUTGateFromFileESsP5share
00000000000cd1d0 T _ZN14BooleanCircuit18PutLUTGateFromFileESsSt6vectorIjSaIjEE
00000000000cb5a0 T _ZN14BooleanCircuit18PutUint2DoubleGateEP5share
00000000000c18f0 T _ZN14BooleanCircuit19PadWithLeadingZerosERSt6vectorIjSaIjEES3_
00000000000bafc0 T _ZN14BooleanCircuit19PutSharedSIMDINGateEj
00000000000cdfa0 W _ZN14BooleanCircuit19PutSharedSIMDINGateEjhj
00000000000cde70 W _ZN14BooleanCircuit19PutSharedSIMDINGateEjjj
00000000000bb070 T _ZN14BooleanCircuit19PutSharedSIMDINGateEjm
00000000000cf0f0 W _ZN14BooleanCircuit19PutSharedSIMDINGateEjmj
00000000000ce7c0 W _ZN14BooleanCircuit19PutSharedSIMDINGateEjPhj
00000000000cec80 W _ZN14BooleanCircuit19PutSharedSIMDINGateEjPjj
00000000000ceaf0 W _ZN14BooleanCircuit19PutSharedSIMDINGateEjPmj
00000000000ce950 W _ZN14BooleanCircuit19PutSharedSIMDINGateEjPtj
00000000000ce0d0 W _ZN14BooleanCircuit19PutSharedSIMDINGateEjtj
00000000000bc8f0 T _ZN14BooleanCircuit19PutYSwitchRolesGateEj
00000000000bca50 T _ZN14BooleanCircuit19PutYSwitchRolesGateEP5share
00000000000bc9d0 T _ZN14BooleanCircuit19PutYSwitchRolesGateESt6vectorIjSaIjEE
00000000000cab10 T _ZN14BooleanCircuit20PutHammingWeightGateEP5share
00000000000caab0 T _ZN14BooleanCircuit20PutHammingWeightGateEP5sharej
00000000000be0c0 T _ZN14BooleanCircuit21UpdateTruthTableSizesEjjj
00000000000bbbb0 T _ZN14BooleanCircuit22GetInputLengthFromFileESs
00000000000bb720 T _ZN14BooleanCircuit22GetInputLengthFromFileESsRjS0_
00000000000c2250 T _ZN14BooleanCircuit22PutSizeOptimizedGTGateESt6vectorIjSaIjEES2_
00000000000bb0f0 T _ZN14BooleanCircuit22PutYaoSharedSIMDINGateEj10yao_fields
00000000000bb1b0 T _ZN14BooleanCircuit22PutYaoSharedSIMDINGateEjP10yao_fieldsj
00000000000cdb70 T _ZN14BooleanCircuit22UpdateInteractiveQueueEj
00000000000c2320 T _ZN14BooleanCircuit23PutDepthOptimizedGTGateESt6vectorIjSaIjEES2_
00000000000ca7d0 T _ZN14BooleanCircuit23PutHammingWeightGateRecEPjj
00000000000c1c20 T _ZN14BooleanCircuit23PutSizeOptimizedAddGateESt6vectorIjSaIjEES2_i
00000000000bf0f0 T _ZN14BooleanCircuit23PutUniversalGateCircuitEjjj
00000000000c9ab0 T _ZN14BooleanCircuit24PutBarrelLeftShifterGateEP5shareS1_
00000000000c9630 T _ZN14BooleanCircuit24PutBarrelLeftShifterGateESt6vectorIjSaIjEES2_j
00000000000c6360 T _ZN14BooleanCircuit24PutDepthOptimizedAddGateESt6vectorIjSaIjEES2_ib
00000000000c9e90 T _ZN14BooleanCircuit25PutBarrelRightShifterGateEP5shareS1_
00000000000c9b80 T _ZN14BooleanCircuit25PutBarrelRightShifterGateESt6vectorIjSaIjEES2_
00000000000bc1b0 T _ZN14BooleanCircuit27PutStructurizedCombinerGateEP5sharejjj
00000000000bc130 T _ZN14BooleanCircuit27PutStructurizedCombinerGateESt6vectorIjSaIjEEjjj
00000000000cb5e0 T _ZN14BooleanCircuit27PutUniversalCircuitFromFileESsSsSt6vectorIjSaIjEEj
00000000000c1000 T _ZN14BooleanCircuit28PutTruthTableMultiOutputGateEP5sharejPm
00000000000c0e10 T _ZN14BooleanCircuit28PutTruthTableMultiOutputGateESt6vectorIjSaIjEEjPm
00000000000c8e10 T _ZN14BooleanCircuit4InitEv
00000000000bd0c0 T _ZN14BooleanCircuit5ResetEv
00000000000bada0 T _ZN14BooleanCircuit7CleanupEv
00000000000c8d50 T _ZN14BooleanCircuit9PutEQGateEP5shareS1_
00000000000c8bf0 T _ZN14BooleanCircuit9PutEQGateESt6vectorIjSaIjEES2_
00000000000ccfd0 T _ZN14BooleanCircuit9PutFPGateEP5share4op_thj13fp_op_setting
00000000000ccda0 T _ZN14BooleanCircuit9PutFPGateEP5shareS1_4op_thj13fp_op_setting
00000000000cc9e0 T _ZN14BooleanCircuit9PutFPGateESsSt6vectorIjSaIjEEhj
00000000000ccc90 T _ZN14BooleanCircuit9PutFPGateESsSt6vectorIjSaIjEES2_hj
00000000000c8b30 T _ZN14BooleanCircuit9PutGTGateEP5shareS1_
00000000000c8a30 T _ZN14BooleanCircuit9PutGTGateESt6vectorIjSaIjEES2_
00000000000bd440 T _ZN14BooleanCircuit9PutINGateE6e_role
00000000000cfe10 W _ZN14BooleanCircuit9PutINGateEhj6e_role
00000000000cfec0 W _ZN14BooleanCircuit9PutINGateEjj6e_role
00000000000bd740 T _ZN14BooleanCircuit9PutINGateEm6e_role
00000000000cfc50 W _ZN14BooleanCircuit9PutINGateEmj6e_role
00000000000d0400 W _ZN14BooleanCircuit9PutINGateEPhj6e_role
00000000000d0290 W _ZN14BooleanCircuit9PutINGateEPjj6e_role
00000000000cff90 W _ZN14BooleanCircuit9PutINGateEPmj6e_role
00000000000d0110 W _ZN14BooleanCircuit9PutINGateEPtj6e_role
00000000000cfd30 W _ZN14BooleanCircuit9PutINGateEtj6e_role
00000000000c0740 T _ZN14BooleanCircuit9PutORGateEjj
00000000000c26b0 T _ZN14BooleanCircuit9PutORGateEP5shareS1_
00000000000c2600 T _ZN14BooleanCircuit9PutORGateESt6vectorIjSaIjEES2_
00000000000a35a0 W _ZN14BooleanCircuitD0Ev
00000000000a3450 W _ZN14BooleanCircuitD1Ev
00000000000a3450 W _ZN14BooleanCircuitD2Ev
00000000000afd50 T _ZN16YaoClientSharing10InitClientEv
00000000000b0350 T _ZN16YaoClientSharing11AssignInputER10CBitVector
00000000000aecf0 T _ZN16YaoClientSharing12InitNewLayerEv
00000000000b2570 W _ZN16YaoClientSharing12sharing_typeEv
00000000000b2150 T _ZN16YaoClientSharing13GetDataToSendERSt6vectorIPhSaIS1_EERS0_ImSaImEE
00000000000af000 T _ZN16YaoClientSharing15EvaluateANDGateEP4GATE
00000000000aee10 T _ZN16YaoClientSharing15EvaluateXORGateEP4GATE
00000000000ae8a0 T _ZN16YaoClientSharing15InstantiateGateEP4GATE
00000000000af730 T _ZN16YaoClientSharing16EvaluateSIMDGateEj
00000000000af180 T _ZN16YaoClientSharing16EvaluateUNIVGateEP4GATE
00000000000ae8d0 T _ZN16YaoClientSharing16FinishSetupPhaseEP8ABYSetup
00000000000aedf0 T _ZN16YaoClientSharing17PerformSetupPhaseEP8ABYSetup
00000000000afb30 T _ZN16YaoClientSharing17PrepareSetupPhaseEP8ABYSetup
00000000000b0010 T _ZN16YaoClientSharing17ReceiveClientKeysEj
00000000000affa0 T _ZN16YaoClientSharing17ReceiveServerKeysEj
00000000000afe80 T _ZN16YaoClientSharing18FinishCircuitLayerEv
00000000000aed20 T _ZN16YaoClientSharing18PrepareOnlinePhaseEv
00000000000b22f0 T _ZN16YaoClientSharing19GetBuffersToReceiveERSt6vectorIPhSaIS1_EERS0_ImSaImEE
00000000000aeee0 T _ZN16YaoClientSharing20EvaluateGarbledTableEP4GATEjS1_S1_
00000000000af540 T _ZN16YaoClientSharing21AssignClientInputKeysEv
00000000000af420 T _ZN16YaoClientSharing21AssignServerInputKeysEv
00000000000af0e0 T _ZN16YaoClientSharing21EvaluateUniversalGateEP4GATEjS1_S1_
00000000000b00a0 T _ZN16YaoClientSharing22EvaluateConversionGateEj
00000000000b1850 T _ZN16YaoClientSharing23EvaluateLocalOperationsEj
00000000000af260 T _ZN16YaoClientSharing24EvaluateClientOutputGateEj
00000000000af390 T _ZN16YaoClientSharing24EvaluateServerOutputGateEP4GATE
00000000000b0cd0 T _ZN16YaoClientSharing29EvaluateInteractiveOperationsEj
00000000000aed30 T _ZN16YaoClientSharing36ReceiveGarbledCircuitAndOutputSharesEP8ABYSetup
00000000000ae8e0 T _ZN16YaoClientSharing5ResetEv
00000000000b07e0 T _ZN16YaoClientSharing9GetOutputER10CBitVector
0000000000073b80 W _ZN16YaoClientSharingC1E9e_sharing6e_rolejP10ABYCircuitP6cryptoRKSs
0000000000073b80 W _ZN16YaoClientSharingC2E9e_sharing6e_rolejP10ABYCircuitP6cryptoRKSs
00000000000aec30 T _ZN16YaoClientSharingD0Ev
00000000000aeaf0 T _ZN16YaoClientSharingD1Ev
00000000000aeaf0 T _ZN16YaoClientSharingD2Ev
00000000000b2bf0 T _ZN16YaoServerSharing10InitServerEv
00000000000b6420 T _ZN16YaoServerSharing11AssignInputER10CBitVector
00000000000b2be0 T _ZN16YaoServerSharing12InitNewLayerEv
00000000000b4ff0 T _ZN16YaoServerSharing12PrecomputeGCERSt5dequeIjSaIjEEP8ABYSetup
00000000000b8c70 W _ZN16YaoServerSharing12sharing_typeEv
00000000000b8920 T _ZN16YaoServerSharing13GetDataToSendERSt6vectorIPhSaIS1_EERS0_ImSaImEE
00000000000b3520 T _ZN16YaoServerSharing15EvaluateANDGateEP4GATEP8ABYSetup
00000000000b2fb0 T _ZN16YaoServerSharing15EvaluateXORGateEP4GATE
00000000000b2b90 T _ZN16YaoServerSharing15InstantiateGateEP4GATE
00000000000b42f0 T _ZN16YaoServerSharing16EvaluateSIMDGateEj
00000000000b6e00 T _ZN16YaoServerSharing16FinishSetupPhaseEP8ABYSetup
00000000000b4a10 T _ZN16YaoServerSharing17EvaluateInputGateEj
00000000000b6090 T _ZN16YaoServerSharing17PerformSetupPhaseEP8ABYSetup
00000000000b8130 T _ZN16YaoServerSharing17PrepareSetupPhaseEP8ABYSetup
00000000000b3bb0 T _ZN16YaoServerSharing18AssignOutputSharesEv
00000000000b3120 T _ZN16YaoServerSharing18CreateGarbledTableEP4GATEjS1_S1_
00000000000b3af0 T _ZN16YaoServerSharing18EvaluateOutputGateEP4GATE
00000000000b3ca0 T _ZN16YaoServerSharing18FinishCircuitLayerEv
00000000000b2580 T _ZN16YaoServerSharing18PrepareOnlinePhaseEv
00000000000b4860 T _ZN16YaoServerSharing18SendClientInputKeyEj
00000000000b2d10 T _ZN16YaoServerSharing18SendServerInputKeyEj
00000000000b36a0 T _ZN16YaoServerSharing19GarbleUniversalGateEP4GATEjS1_S1_j
00000000000b8b00 T _ZN16YaoServerSharing19GetBuffersToReceiveERSt6vectorIPhSaIS1_EERS0_ImSaImEE
00000000000b4290 T _ZN16YaoServerSharing20CreateRandomWireKeysER10CBitVectorj
00000000000b3a10 T _ZN16YaoServerSharing20EvaluateConstantGateEP4GATE
00000000000b48d0 T _ZN16YaoServerSharing20SendConversionValuesEj
00000000000b2eb0 T _ZN16YaoServerSharing21EvaluateInversionGateEP4GATE
00000000000b3910 T _ZN16YaoServerSharing21EvaluateUniversalGateEP4GATE
00000000000b4ca0 T _ZN16YaoServerSharing22EvaluateConversionGateEj
00000000000b68b0 T _ZN16YaoServerSharing23EvaluateLocalOperationsEj
00000000000b5530 T _ZN16YaoServerSharing25CollectClientOutputSharesEv
00000000000b5850 T _ZN16YaoServerSharing27CreateAndSendGarbledCircuitEP8ABYSetup
00000000000b7610 T _ZN16YaoServerSharing29EvaluateInteractiveOperationsEj
00000000000b25a0 T _ZN16YaoServerSharing5ResetEv
00000000000b60b0 T _ZN16YaoServerSharing9GetOutputER10CBitVector
0000000000073e60 W _ZN16YaoServerSharingC1E9e_sharing6e_rolejP10ABYCircuitP6cryptoRKSs
0000000000073e60 W _ZN16YaoServerSharingC2E9e_sharing6e_rolejP10ABYCircuitP6cryptoRKSs
00000000000b2ae0 T _ZN16YaoServerSharingD0Ev
00000000000b28b0 T _ZN16YaoServerSharingD1Ev
00000000000b28b0 T _ZN16YaoServerSharingD2Ev
000000000007fb90 W _ZN17ArithmeticCircuit10PutA2YGateEP5share
000000000007d930 T _ZN17ArithmeticCircuit10PutADDGateEjj
000000000007d970 T _ZN17ArithmeticCircuit10PutADDGateEP5shareS1_
000000000007f510 W _ZN17ArithmeticCircuit10PutANDGateEP5shareS1_
000000000007dff0 T _ZN17ArithmeticCircuit10PutB2AGateEP5share
000000000007e120 T _ZN17ArithmeticCircuit10PutB2AGateESt6vectorIjSaIjEE
000000000007f920 W _ZN17ArithmeticCircuit10PutB2YGateEP5share
000000000007c550 T _ZN17ArithmeticCircuit10PutINVGateEj
000000000007d810 T _ZN17ArithmeticCircuit10PutMULGateEjj
000000000007d8a0 T _ZN17ArithmeticCircuit10PutMULGateEP5shareS1_
000000000007f9f0 W _ZN17ArithmeticCircuit10PutMUXGateEP5shareS1_S1_
000000000007eac0 T _ZN17ArithmeticCircuit10PutOUTGateEj6e_role
000000000007ed50 T _ZN17ArithmeticCircuit10PutOUTGateEP5share6e_role
000000000007da00 T _ZN17ArithmeticCircuit10PutSUBGateEjj
000000000007da60 T _ZN17ArithmeticCircuit10PutSUBGateEP5shareS1_
000000000007f5e0 W _ZN17ArithmeticCircuit10PutXORGateEP5shareS1_
000000000007f6b0 W _ZN17ArithmeticCircuit10PutY2BGateEP5share
000000000007cc60 T _ZN17ArithmeticCircuit11PutCONSGateEmj
000000000007c510 T _ZN17ArithmeticCircuit11PutCONSGateEPhj
000000000007c530 T _ZN17ArithmeticCircuit11PutCONSGateEPjj
000000000007deb0 T _ZN17ArithmeticCircuit11PutCONVGateESt6vectorIjSaIjEE
000000000007f850 W _ZN17ArithmeticCircuit13PutANDVecGateEP5shareS1_
000000000007e720 T _ZN17ArithmeticCircuit13PutSIMDINGateEj6e_role
0000000000081980 W _ZN17ArithmeticCircuit13PutSIMDINGateEjhj6e_role
0000000000080f50 W _ZN17ArithmeticCircuit13PutSIMDINGateEjjj6e_role
0000000000081030 W _ZN17ArithmeticCircuit13PutSIMDINGateEjmj6e_role
00000000000814c0 W _ZN17ArithmeticCircuit13PutSIMDINGateEjPhj6e_role
0000000000081720 W _ZN17ArithmeticCircuit13PutSIMDINGateEjPjj6e_role
00000000000815f0 W _ZN17ArithmeticCircuit13PutSIMDINGateEjPmj6e_role
0000000000081850 W _ZN17ArithmeticCircuit13PutSIMDINGateEjPtj6e_role
0000000000080e80 W _ZN17ArithmeticCircuit13PutSIMDINGateEjtj6e_role
000000000007e620 T _ZN17ArithmeticCircuit14PutDummyINGateEj
000000000007c900 T _ZN17ArithmeticCircuit15PutCallbackGateEP5sharejPFvP4GATEPvES4_j
000000000007fd30 W _ZN17ArithmeticCircuit15PutCondSwapGateEP5shareS1_S1_i
000000000007c580 T _ZN17ArithmeticCircuit15PutConstantGateEmj
000000000007d6a0 T _ZN17ArithmeticCircuit15PutMULCONSTGateEjj
000000000007d780 T _ZN17ArithmeticCircuit15PutMULCONSTGateEP5shareS1_
0000000000080970 W _ZN17ArithmeticCircuit15PutSharedINGateEhj
000000000007ff10 W _ZN17ArithmeticCircuit15PutSharedINGateEjj
0000000000080ae0 W _ZN17ArithmeticCircuit15PutSharedINGateEmj
0000000000080140 W _ZN17ArithmeticCircuit15PutSharedINGateEPhj
00000000000802e0 W _ZN17ArithmeticCircuit15PutSharedINGateEPjj
00000000000803b0 W _ZN17ArithmeticCircuit15PutSharedINGateEPmj
0000000000080210 W _ZN17ArithmeticCircuit15PutSharedINGateEPtj
00000000000808c0 W _ZN17ArithmeticCircuit15PutSharedINGateEtj
000000000007daf0 T _ZN17ArithmeticCircuit15PutSharedINGateEv
000000000007cb10 T _ZN17ArithmeticCircuit15PutSIMDCONSGateEjmj
000000000007c660 T _ZN17ArithmeticCircuit15PutSIMDCONSGateEjPhj
000000000007cda0 T _ZN17ArithmeticCircuit15PutSIMDCONSGateEjPjj
000000000007dcb0 T _ZN17ArithmeticCircuit16PutSharedOUTGateEP5share
000000000007db70 T _ZN17ArithmeticCircuit16PutSharedOUTGateESt6vectorIjSaIjEE
000000000007fac0 W _ZN17ArithmeticCircuit16PutUniversalGateEP5shareS1_j
000000000007f320 T _ZN17ArithmeticCircuit16UpdateLocalQueueEj
000000000007f480 W _ZN17ArithmeticCircuit17PutTruthTableGateEP5sharePm
000000000007e9c0 T _ZN17ArithmeticCircuit18PutDummySIMDINGateEjj
000000000007db30 T _ZN17ArithmeticCircuit19PutSharedSIMDINGateEj
0000000000080080 W _ZN17ArithmeticCircuit19PutSharedSIMDINGateEjhj
0000000000080a20 W _ZN17ArithmeticCircuit19PutSharedSIMDINGateEjjj
000000000007fe50 W _ZN17ArithmeticCircuit19PutSharedSIMDINGateEjmj
0000000000080480 W _ZN17ArithmeticCircuit19PutSharedSIMDINGateEjPhj
00000000000807b0 W _ZN17ArithmeticCircuit19PutSharedSIMDINGateEjPjj
0000000000080590 W _ZN17ArithmeticCircuit19PutSharedSIMDINGateEjPmj
00000000000806a0 W _ZN17ArithmeticCircuit19PutSharedSIMDINGateEjPtj
000000000007ffc0 W _ZN17ArithmeticCircuit19PutSharedSIMDINGateEjtj
000000000007edf0 T _ZN17ArithmeticCircuit22UpdateInteractiveQueueEj
000000000007f3f0 W _ZN17ArithmeticCircuit28PutTruthTableMultiOutputGateEP5sharejPm
000000000007e210 T _ZN17ArithmeticCircuit4InitEv
000000000007eec0 T _ZN17ArithmeticCircuit5ResetEv
000000000007d690 T _ZN17ArithmeticCircuit7CleanupEv
000000000007fc60 W _ZN17ArithmeticCircuit9PutEQGateEP5shareS1_
000000000007f780 W _ZN17ArithmeticCircuit9PutGTGateEP5shareS1_
000000000007e380 T _ZN17ArithmeticCircuit9PutINGateE6e_role
0000000000080dc0 W _ZN17ArithmeticCircuit9PutINGateEhj6e_role
0000000000081bd0 W _ZN17ArithmeticCircuit9PutINGateEjj6e_role
0000000000081b10 W _ZN17ArithmeticCircuit9PutINGateEmj6e_role
0000000000081100 W _ZN17ArithmeticCircuit9PutINGateEPhj6e_role
00000000000812e0 W _ZN17ArithmeticCircuit9PutINGateEPjj6e_role
00000000000813d0 W _ZN17ArithmeticCircuit9PutINGateEPmj6e_role
00000000000811f0 W _ZN17ArithmeticCircuit9PutINGateEPtj6e_role
0000000000081a50 W _ZN17ArithmeticCircuit9PutINGateEtj6e_role
0000000000073320 W _ZN17ArithmeticCircuitD0Ev
0000000000073370 W _ZN17ArithmeticCircuitD1Ev
0000000000073370 W _ZN17ArithmeticCircuitD2Ev
00000000000cdd80 W _ZN4FP6410getExpBiasEv
00000000000cdd70 W _ZN4FP6410getExpBitsEv
00000000000cdd60 W _ZN4FP6414getNumOfDigitsEv
00000000000cdd50 W _ZN4FP647getBaseEv
00000000000e3dc0 W _ZN5boost10wrapexceptINS_4asio21invalid_service_ownerEED0Ev
00000000000e2760 W _ZN5boost10wrapexceptINS_4asio21invalid_service_ownerEED1Ev
00000000000e2760 W _ZN5boost10wrapexceptINS_4asio21invalid_service_ownerEED2Ev
00000000000e3f40 W _ZN5boost10wrapexceptINS_4asio22service_already_existsEED0Ev
00000000000e28b0 W _ZN5boost10wrapexceptINS_4asio22service_already_existsEED1Ev
00000000000e28b0 W _ZN5boost10wrapexceptINS_4asio22service_already_existsEED2Ev
00000000000e3ac0 W _ZN5boost10wrapexceptINS_4asio2ip16bad_address_castEED0Ev
00000000000e2a50 W _ZN5boost10wrapexceptINS_4asio2ip16bad_address_castEED1Ev
00000000000e2a50 W _ZN5boost10wrapexceptINS_4asio2ip16bad_address_castEED2Ev
00000000000e3c40 W _ZN5boost10wrapexceptINS_4asio9execution12bad_executorEED0Ev
00000000000e2180 W _ZN5boost10wrapexceptINS_4asio9execution12bad_executorEED1Ev
00000000000e2180 W _ZN5boost10wrapexceptINS_4asio9execution12bad_executorEED2Ev
00000000000e4100 W _ZN5boost10wrapexceptINS_6system12system_errorEED0Ev
00000000000e3600 W _ZN5boost10wrapexceptINS_6system12system_errorEED1Ev
00000000000e3600 W _ZN5boost10wrapexceptINS_6system12system_errorEED2Ev
00000000000ea110 W _ZN5boost15throw_exceptionINS_4asio21invalid_service_ownerEEEvRKT_
00000000000ea1c0 W _ZN5boost15throw_exceptionINS_4asio22service_already_existsEEEvRKT_
00000000000e6880 W _ZN5boost15throw_exceptionINS_6system12system_errorEEEvRKT_
00000000000e4450 W _ZN5boost16exception_detail20copy_boost_exceptionEPNS_9exceptionEPKS1_
00000000000e1780 W _ZN5boost4asio17execution_context7service11notify_forkENS1_10fork_eventE
00000000000e4cb0 W _ZN5boost4asio17execution_contextD1Ev
00000000000e4cb0 W _ZN5boost4asio17execution_contextD2Ev
00000000000e2680 W _ZN5boost4asio19multiple_exceptionsD0Ev
00000000000e2650 W _ZN5boost4asio19multiple_exceptionsD1Ev
00000000000e2650 W _ZN5boost4asio19multiple_exceptionsD2Ev
00000000000e26e0 W _ZN5boost4asio21invalid_service_ownerD0Ev
00000000000e26c0 W _ZN5boost4asio21invalid_service_ownerD1Ev
00000000000e26c0 W _ZN5boost4asio21invalid_service_ownerD2Ev
00000000000e2730 W _ZN5boost4asio22service_already_existsD0Ev
00000000000e2710 W _ZN5boost4asio22service_already_existsD1Ev
00000000000e2710 W _ZN5boost4asio22service_already_existsD2Ev
00000000000e2a20 W _ZN5boost4asio2ip16bad_address_castD0Ev
00000000000e2a00 W _ZN5boost4asio2ip16bad_address_castD1Ev
00000000000e2a00 W _ZN5boost4asio2ip16bad_address_castD2Ev
00000000000eaff0 W _ZN5boost4asio2ip22basic_resolver_resultsINS1_3tcpEE6createEP8addrinfoRKSsS8_
00000000000e6550 W _ZN5boost4asio2ip6detail8endpointC1ERKNS1_7addressEt
00000000000e6550 W _ZN5boost4asio2ip6detail8endpointC2ERKNS1_7addressEt
00000000000e9510 W _ZN5boost4asio2iplsIcSt11char_traitsIcEEERSt13basic_ostreamIT_T0_ES9_RKNS1_7addressE
00000000000ea7e0 W _ZN5boost4asio2iplsIcSt11char_traitsIcENS1_3tcpEEERSt13basic_ostreamIT_T0_ESA_RKNS1_14basic_endpointIT1_EE
0000000000383c5c u _ZN5boost4asio6detail10call_stackINS1_14thread_contextENS1_16thread_info_baseEE4top_E
00000000000e1dd0 W _ZN5boost4asio6detail10service_idINS1_13epoll_reactorEED1Ev
00000000000e1dd0 W _ZN5boost4asio6detail10service_idINS1_13epoll_reactorEED2Ev
00000000000e1df0 W _ZN5boost4asio6detail10service_idINS1_16resolver_serviceINS0_2ip3tcpEEEED1Ev
00000000000e1df0 W _ZN5boost4asio6detail10service_idINS1_16resolver_serviceINS0_2ip3tcpEEEED2Ev
00000000000e1de0 W _ZN5boost4asio6detail10service_idINS1_23reactive_socket_serviceINS0_2ip3tcpEEEED1Ev
00000000000e1de0 W _ZN5boost4asio6detail10service_idINS1_23reactive_socket_serviceINS0_2ip3tcpEEEED2Ev
00000000000e1dc0 W _ZN5boost4asio6detail10service_idINS1_9schedulerEED1Ev
00000000000e1dc0 W _ZN5boost4asio6detail10service_idINS1_9schedulerEED2Ev
00000000000e5ec0 W _ZN5boost4asio6detail10socket_ops10setsockoptEiRhiiPKvmRNS_6system10error_codeE
00000000000e5e20 W _ZN5boost4asio6detail10socket_ops14get_last_errorERNS_6system10error_codeEb
00000000000e63e0 W _ZN5boost4asio6detail10socket_ops24translate_addrinfo_errorEi
00000000000e6010 W _ZN5boost4asio6detail10socket_ops5closeEiRhbRNS_6system10error_codeE
00000000000e6190 W _ZN5boost4asio6detail10socket_ops9inet_ptonEiPKcPvPmRNS_6system10error_codeE
00000000000eb6d0 W _ZN5boost4asio6detail11executor_opINS1_17executor_functionESaIvENS1_19scheduler_operationEE11do_completeEPvPS5_RKNS_6system10error_codeEm
00000000000eb490 W _ZN5boost4asio6detail11executor_opINS1_17executor_functionESaIvENS1_19scheduler_operationEE3ptr5resetEv
00000000000e7240 W _ZN5boost4asio6detail11object_poolINS1_13epoll_reactor16descriptor_stateEED1Ev
00000000000e7240 W _ZN5boost4asio6detail11object_poolINS1_13epoll_reactor16descriptor_stateEED2Ev
00000000000e8d70 W _ZN5boost4asio6detail12posix_thread4funcINS1_9scheduler15thread_functionEE3runEv
00000000000e2050 W _ZN5boost4asio6detail12posix_thread4funcINS1_9scheduler15thread_functionEED0Ev
00000000000e1d90 W _ZN5boost4asio6detail12posix_thread4funcINS1_9scheduler15thread_functionEED1Ev
00000000000e1d90 W _ZN5boost4asio6detail12posix_thread4funcINS1_9scheduler15thread_functionEED2Ev
00000000000e6bc0 W _ZN5boost4asio6detail13epoll_reactor11notify_forkENS0_17execution_context10fork_eventE
00000000000e6a00 W _ZN5boost4asio6detail13epoll_reactor15do_epoll_createEv
00000000000e9200 W _ZN5boost4asio6detail13epoll_reactor16descriptor_state11do_completeEPvPNS1_19scheduler_operationERKNS_6system10error_codeEm
00000000000e6f10 W _ZN5boost4asio6detail13epoll_reactor19register_descriptorEiRPNS2_16descriptor_stateE
00000000000e8240 W _ZN5boost4asio6detail13epoll_reactor21deregister_descriptorEiRPNS2_16descriptor_stateEb
00000000000e4d40 W _ZN5boost4asio6detail13epoll_reactor3runElRNS1_8op_queueINS1_19scheduler_operationEEE
00000000000e8000 W _ZN5boost4asio6detail13epoll_reactor8shutdownEv
00000000000e41a0 W _ZN5boost4asio6detail13epoll_reactorD0Ev
00000000000e37b0 W _ZN5boost4asio6detail13epoll_reactorD1Ev
00000000000e37b0 W _ZN5boost4asio6detail13epoll_reactorD2Ev
00000000000e6500 W _ZN5boost4asio6detail13socket_holderD1Ev
00000000000e6500 W _ZN5boost4asio6detail13socket_holderD2Ev
00000000000e71c0 W _ZN5boost4asio6detail14do_throw_errorERKNS_6system10error_codeE
00000000000e6990 W _ZN5boost4asio6detail14do_throw_errorERKNS_6system10error_codeEPKc
0000000000000000 u _ZN5boost4asio6detail15keyword_tss_ptrINS1_10call_stackINS1_14thread_contextENS1_16thread_info_baseEE7contextEE6value_E
00000000000e5340 W _ZN5boost4asio6detail16resolver_serviceINS0_2ip3tcpEE11notify_forkENS0_17execution_context10fork_eventE
00000000000e7bb0 W _ZN5boost4asio6detail16resolver_serviceINS0_2ip3tcpEE8shutdownEv
00000000000e7910 W _ZN5boost4asio6detail16resolver_serviceINS0_2ip3tcpEED0Ev
00000000000e7d70 W _ZN5boost4asio6detail16resolver_serviceINS0_2ip3tcpEED1Ev
00000000000e7d70 W _ZN5boost4asio6detail16resolver_serviceINS0_2ip3tcpEED2Ev
00000000000e4b60 W _ZN5boost4asio6detail16service_registry14do_use_serviceERKNS0_17execution_context7service3keyEPFPS4_PvES9_
00000000000e73d0 W _ZN5boost4asio6detail16service_registry6createINS1_13epoll_reactorENS0_17execution_contextEEEPNS5_7serviceEPv
00000000000e90d0 W _ZN5boost4asio6detail16service_registry6createINS1_16resolver_serviceINS0_2ip3tcpEEENS0_10io_contextEEEPNS0_17execution_context7serviceEPv
00000000000e5a80 W _ZN5boost4asio6detail16service_registry6createINS1_23reactive_socket_serviceINS0_2ip3tcpEEENS0_10io_contextEEEPNS0_17execution_context7serviceEPv
00000000000e5c50 W _ZN5boost4asio6detail16service_registry6createINS1_23reactive_socket_serviceINS0_2ip3tcpEEENS0_17execution_contextEEEPNS8_7serviceEPv
00000000000e9080 W _ZN5boost4asio6detail16service_registry6createINS1_9schedulerENS0_17execution_contextEEEPNS5_7serviceEPv
00000000000e1e40 W _ZN5boost4asio6detail23reactive_socket_serviceINS0_2ip3tcpEE8shutdownEv
00000000000e2090 W _ZN5boost4asio6detail23reactive_socket_serviceINS0_2ip3tcpEED0Ev
00000000000e1da0 W _ZN5boost4asio6detail23reactive_socket_serviceINS0_2ip3tcpEED1Ev
00000000000e1da0 W _ZN5boost4asio6detail23reactive_socket_serviceINS0_2ip3tcpEED2Ev
00000000000e6a90 W _ZN5boost4asio6detail26eventfd_select_interrupter16open_descriptorsEv
00000000000e8410 W _ZN5boost4asio6detail28reactive_socket_service_base7destroyERNS2_24base_implementation_typeE
0000000000383c5a u _ZN5boost4asio6detail30execution_context_service_baseINS1_13epoll_reactorEE2idE
0000000000383c58 u _ZN5boost4asio6detail30execution_context_service_baseINS1_16resolver_serviceINS0_2ip3tcpEEEE2idE
0000000000383c59 u _ZN5boost4asio6detail30execution_context_service_baseINS1_23reactive_socket_serviceINS0_2ip3tcpEEEE2idE
0000000000383c5b u _ZN5boost4asio6detail30execution_context_service_baseINS1_9schedulerEE2idE
00000000000e1db0 W _ZN5boost4asio6detail7tss_ptrINS1_10call_stackINS1_14thread_contextENS1_16thread_info_baseEE7contextEED1Ev
00000000000e1db0 W _ZN5boost4asio6detail7tss_ptrINS1_10call_stackINS1_14thread_contextENS1_16thread_info_baseEE7contextEED2Ev
00000000000e76f0 W _ZN5boost4asio6detail8op_queueINS1_19scheduler_operationEED1Ev
00000000000e76f0 W _ZN5boost4asio6detail8op_queueINS1_19scheduler_operationEED2Ev
00000000000e5070 W _ZN5boost4asio6detail9scheduler12task_cleanupD1Ev
00000000000e5070 W _ZN5boost4asio6detail9scheduler12task_cleanupD2Ev
00000000000e5240 W _ZN5boost4asio6detail9scheduler12work_cleanupD1Ev
00000000000e5240 W _ZN5boost4asio6detail9scheduler12work_cleanupD2Ev
00000000000e5440 W _ZN5boost4asio6detail9scheduler25capture_current_exceptionEv
00000000000e57e0 W _ZN5boost4asio6detail9scheduler25post_deferred_completionsERNS1_8op_queueINS1_19scheduler_operationEEE
00000000000e5600 W _ZN5boost4asio6detail9scheduler25post_immediate_completionEPNS1_19scheduler_operationEb
00000000000e59a0 W _ZN5boost4asio6detail9scheduler26wake_one_thread_and_unlockERNS1_27conditionally_enabled_mutex11scoped_lockE
00000000000e8540 W _ZN5boost4asio6detail9scheduler3runERNS_6system10error_codeE
00000000000e5170 W _ZN5boost4asio6detail9scheduler4stopEv
00000000000e3040 W _ZN5boost4asio6detail9scheduler8shutdownEv
00000000000e8da0 W _ZN5boost4asio6detail9schedulerC1ERNS0_17execution_contextEib
00000000000e8da0 W _ZN5boost4asio6detail9schedulerC2ERNS0_17execution_contextEib
00000000000e78f0 W _ZN5boost4asio6detail9schedulerD0Ev
00000000000e7770 W _ZN5boost4asio6detail9schedulerD1Ev
00000000000e7770 W _ZN5boost4asio6detail9schedulerD2Ev
00000000000e2150 W _ZN5boost4asio9execution12bad_executorD0Ev
00000000000e2130 W _ZN5boost4asio9execution12bad_executorD1Ev
00000000000e2130 W _ZN5boost4asio9execution12bad_executorD2Ev
00000000000e1620 W _ZN5boost4asio9execution6detail17any_executor_base10equal_voidERKS3_S5_
00000000000eb6c0 W _ZN5boost4asio9execution6detail17any_executor_base10execute_exINS0_10io_context19basic_executor_typeISaIvELj0EEEEEvRKS3_ONS0_6detail17executor_functionE
00000000000eb9a0 W _ZN5boost4asio9execution6detail17any_executor_base10execute_exINS0_10io_context19basic_executor_typeISaIvELj4EEEEEvRKS3_ONS0_6detail17executor_functionE
00000000000e1800 W _ZN5boost4asio9execution6detail17any_executor_base10require_fnINS1_12any_executorIJNS1_12context_as_tIRNS0_17execution_contextEEENS2_8blocking7never_tILi0EEENS1_11prefer_onlyINSA_10possibly_tILi0EEEEENSD_INS2_16outstanding_work9tracked_tILi0EEEEENSD_INSH_11untracked_tILi0EEEEENSD_INS2_12relationship6fork_tILi0EEEEENSD_INSO_14continuation_tILi0EEEEEEEENS0_10io_context19basic_executor_typeISaIvELj0EEES9_EET_PKvS12_
00000000000e1860 W _ZN5boost4asio9execution6detail17any_executor_base10require_fnINS1_12any_executorIJNS1_12context_as_tIRNS0_17execution_contextEEENS2_8blocking7never_tILi0EEENS1_11prefer_onlyINSA_10possibly_tILi0EEEEENSD_INS2_16outstanding_work9tracked_tILi0EEEEENSD_INSH_11untracked_tILi0EEEEENSD_INS2_12relationship6fork_tILi0EEEEENSD_INSO_14continuation_tILi0EEEEEEEENS0_10io_context19basic_executor_typeISaIvELj0EEESC_EET_PKvS12_
00000000000e18e0 W _ZN5boost4asio9execution6detail17any_executor_base10require_fnINS1_12any_executorIJNS1_12context_as_tIRNS0_17execution_contextEEENS2_8blocking7never_tILi0EEENS1_11prefer_onlyINSA_10possibly_tILi0EEEEENSD_INS2_16outstanding_work9tracked_tILi0EEEEENSD_INSH_11untracked_tILi0EEEEENSD_INS2_12relationship6fork_tILi0EEEEENSD_INSO_14continuation_tILi0EEEEEEEENS0_10io_context19basic_executor_typeISaIvELj0EEESG_EET_PKvS12_
00000000000e1950 W _ZN5boost4asio9execution6detail17any_executor_base10require_fnINS1_12any_executorIJNS1_12context_as_tIRNS0_17execution_contextEEENS2_8blocking7never_tILi0EEENS1_11prefer_onlyINSA_10possibly_tILi0EEEEENSD_INS2_16outstanding_work9tracked_tILi0EEEEENSD_INSH_11untracked_tILi0EEEEENSD_INS2_12relationship6fork_tILi0EEEEENSD_INSO_14continuation_tILi0EEEEEEEENS0_10io_context19basic_executor_typeISaIvELj0EEESK_EET_PKvS12_
00000000000e1980 W _ZN5boost4asio9execution6detail17any_executor_base10require_fnINS1_12any_executorIJNS1_12context_as_tIRNS0_17execution_contextEEENS2_8blocking7never_tILi0EEENS1_11prefer_onlyINSA_10possibly_tILi0EEEEENSD_INS2_16outstanding_work9tracked_tILi0EEEEENSD_INSH_11untracked_tILi0EEEEENSD_INS2_12relationship6fork_tILi0EEEEENSD_INSO_14continuation_tILi0EEEEEEEENS0_10io_context19basic_executor_typeISaIvELj0EEESN_EET_PKvS12_
00000000000e19f0 W _ZN5boost4asio9execution6detail17any_executor_base10require_fnINS1_12any_executorIJNS1_12context_as_tIRNS0_17execution_contextEEENS2_8blocking7never_tILi0EEENS1_11prefer_onlyINSA_10possibly_tILi0EEEEENSD_INS2_16outstanding_work9tracked_tILi0EEEEENSD_INSH_11untracked_tILi0EEEEENSD_INS2_12relationship6fork_tILi0EEEEENSD_INSO_14continuation_tILi0EEEEEEEENS0_10io_context19basic_executor_typeISaIvELj0EEESR_EET_PKvS12_
00000000000e1a60 W _ZN5boost4asio9execution6detail17any_executor_base10require_fnINS1_12any_executorIJNS1_12context_as_tIRNS0_17execution_contextEEENS2_8blocking7never_tILi0EEENS1_11prefer_onlyINSA_10possibly_tILi0EEEEENSD_INS2_16outstanding_work9tracked_tILi0EEEEENSD_INSH_11untracked_tILi0EEEEENSD_INS2_12relationship6fork_tILi0EEEEENSD_INSO_14continuation_tILi0EEEEEEEENS0_10io_context19basic_executor_typeISaIvELj0EEESU_EET_PKvS12_
00000000000e1b80 W _ZN5boost4asio9execution6detail17any_executor_base10require_fnINS1_12any_executorIJNS1_12context_as_tIRNS0_17execution_contextEEENS2_8blocking7never_tILi0EEENS1_11prefer_onlyINSA_10possibly_tILi0EEEEENSD_INS2_16outstanding_work9tracked_tILi0EEEEENSD_INSH_11untracked_tILi0EEEEENSD_INS2_12relationship6fork_tILi0EEEEENSD_INSO_14continuation_tILi0EEEEEEEENS0_10io_context19basic_executor_typeISaIvELj4EEES9_EET_PKvS12_
00000000000e2440 W _ZN5boost4asio9execution6detail17any_executor_base10require_fnINS1_12any_executorIJNS1_12context_as_tIRNS0_17execution_contextEEENS2_8blocking7never_tILi0EEENS1_11prefer_onlyINSA_10possibly_tILi0EEEEENSD_INS2_16outstanding_work9tracked_tILi0EEEEENSD_INSH_11untracked_tILi0EEEEENSD_INS2_12relationship6fork_tILi0EEEEENSD_INSO_14continuation_tILi0EEEEEEEENS0_10io_context19basic_executor_typeISaIvELj4EEESC_EET_PKvS12_
00000000000e1be0 W _ZN5boost4asio9execution6detail17any_executor_base10require_fnINS1_12any_executorIJNS1_12context_as_tIRNS0_17execution_contextEEENS2_8blocking7never_tILi0EEENS1_11prefer_onlyINSA_10possibly_tILi0EEEEENSD_INS2_16outstanding_work9tracked_tILi0EEEEENSD_INSH_11untracked_tILi0EEEEENSD_INS2_12relationship6fork_tILi0EEEEENSD_INSO_14continuation_tILi0EEEEEEEENS0_10io_context19basic_executor_typeISaIvELj4EEESG_EET_PKvS12_
00000000000e1c10 W _ZN5boost4asio9execution6detail17any_executor_base10require_fnINS1_12any_executorIJNS1_12context_as_tIRNS0_17execution_contextEEENS2_8blocking7never_tILi0EEENS1_11prefer_onlyINSA_10possibly_tILi0EEEEENSD_INS2_16outstanding_work9tracked_tILi0EEEEENSD_INSH_11untracked_tILi0EEEEENSD_INS2_12relationship6fork_tILi0EEEEENSD_INSO_14continuation_tILi0EEEEEEEENS0_10io_context19basic_executor_typeISaIvELj4EEESK_EET_PKvS12_
00000000000e1c40 W _ZN5boost4asio9execution6detail17any_executor_base10require_fnINS1_12any_executorIJNS1_12context_as_tIRNS0_17execution_contextEEENS2_8blocking7never_tILi0EEENS1_11prefer_onlyINSA_10possibly_tILi0EEEEENSD_INS2_16outstanding_work9tracked_tILi0EEEEENSD_INSH_11untracked_tILi0EEEEENSD_INS2_12relationship6fork_tILi0EEEEENSD_INSO_14continuation_tILi0EEEEEEEENS0_10io_context19basic_executor_typeISaIvELj4EEESN_EET_PKvS12_
00000000000e1cb0 W _ZN5boost4asio9execution6detail17any_executor_base10require_fnINS1_12any_executorIJNS1_12context_as_tIRNS0_17execution_contextEEENS2_8blocking7never_tILi0EEENS1_11prefer_onlyINSA_10possibly_tILi0EEEEENSD_INS2_16outstanding_work9tracked_tILi0EEEEENSD_INSH_11untracked_tILi0EEEEENSD_INS2_12relationship6fork_tILi0EEEEENSD_INSO_14continuation_tILi0EEEEEEEENS0_10io_context19basic_executor_typeISaIvELj4EEESR_EET_PKvS12_
00000000000e1ce0 W _ZN5boost4asio9execution6detail17any_executor_base10require_fnINS1_12any_executorIJNS1_12context_as_tIRNS0_17execution_contextEEENS2_8blocking7never_tILi0EEENS1_11prefer_onlyINSA_10possibly_tILi0EEEEENSD_INS2_16outstanding_work9tracked_tILi0EEEEENSD_INSH_11untracked_tILi0EEEEENSD_INS2_12relationship6fork_tILi0EEEEENSD_INSO_14continuation_tILi0EEEEEEEENS0_10io_context19basic_executor_typeISaIvELj4EEESU_EET_PKvS12_
00000000000e2dc0 W _ZN5boost4asio9execution6detail17any_executor_base10require_fnINS1_12any_executorIJNS1_12context_as_tIRNS0_17execution_contextEEENS2_8blocking7never_tILi0EEENS1_11prefer_onlyINSA_10possibly_tILi0EEEEENSD_INS2_16outstanding_work9tracked_tILi0EEEEENSD_INSH_11untracked_tILi0EEEEENSD_INS2_12relationship6fork_tILi0EEEEENSD_INSO_14continuation_tILi0EEEEEEEEvS9_EET_PKvSY_
00000000000e2de0 W _ZN5boost4asio9execution6detail17any_executor_base10require_fnINS1_12any_executorIJNS1_12context_as_tIRNS0_17execution_contextEEENS2_8blocking7never_tILi0EEENS1_11prefer_onlyINSA_10possibly_tILi0EEEEENSD_INS2_16outstanding_work9tracked_tILi0EEEEENSD_INSH_11untracked_tILi0EEEEENSD_INS2_12relationship6fork_tILi0EEEEENSD_INSO_14continuation_tILi0EEEEEEEEvSC_EET_PKvSY_
00000000000e2e00 W _ZN5boost4asio9execution6detail17any_executor_base10require_fnINS1_12any_executorIJNS1_12context_as_tIRNS0_17execution_contextEEENS2_8blocking7never_tILi0EEENS1_11prefer_onlyINSA_10possibly_tILi0EEEEENSD_INS2_16outstanding_work9tracked_tILi0EEEEENSD_INSH_11untracked_tILi0EEEEENSD_INS2_12relationship6fork_tILi0EEEEENSD_INSO_14continuation_tILi0EEEEEEEEvSG_EET_PKvSY_
00000000000e2e20 W _ZN5boost4asio9execution6detail17any_executor_base10require_fnINS1_12any_executorIJNS1_12context_as_tIRNS0_17execution_contextEEENS2_8blocking7never_tILi0EEENS1_11prefer_onlyINSA_10possibly_tILi0EEEEENSD_INS2_16outstanding_work9tracked_tILi0EEEEENSD_INSH_11untracked_tILi0EEEEENSD_INS2_12relationship6fork_tILi0EEEEENSD_INSO_14continuation_tILi0EEEEEEEEvSK_EET_PKvSY_
00000000000e2e40 W _ZN5boost4asio9execution6detail17any_executor_base10require_fnINS1_12any_executorIJNS1_12context_as_tIRNS0_17execution_contextEEENS2_8blocking7never_tILi0EEENS1_11prefer_onlyINSA_10possibly_tILi0EEEEENSD_INS2_16outstanding_work9tracked_tILi0EEEEENSD_INSH_11untracked_tILi0EEEEENSD_INS2_12relationship6fork_tILi0EEEEENSD_INSO_14continuation_tILi0EEEEEEEEvSN_EET_PKvSY_
00000000000e2e60 W _ZN5boost4asio9execution6detail17any_executor_base10require_fnINS1_12any_executorIJNS1_12context_as_tIRNS0_17execution_contextEEENS2_8blocking7never_tILi0EEENS1_11prefer_onlyINSA_10possibly_tILi0EEEEENSD_INS2_16outstanding_work9tracked_tILi0EEEEENSD_INSH_11untracked_tILi0EEEEENSD_INS2_12relationship6fork_tILi0EEEEENSD_INSO_14continuation_tILi0EEEEEEEEvSR_EET_PKvSY_
00000000000e2e80 W _ZN5boost4asio9execution6detail17any_executor_base10require_fnINS1_12any_executorIJNS1_12context_as_tIRNS0_17execution_contextEEENS2_8blocking7never_tILi0EEENS1_11prefer_onlyINSA_10possibly_tILi0EEEEENSD_INS2_16outstanding_work9tracked_tILi0EEEEENSD_INSH_11untracked_tILi0EEEEENSD_INS2_12relationship6fork_tILi0EEEEENSD_INSO_14continuation_tILi0EEEEEEEEvSU_EET_PKvSY_
00000000000e1b20 W _ZN5boost4asio9execution6detail17any_executor_base11copy_objectINS0_10io_context19basic_executor_typeISaIvELj0EEEEEvRS3_RKS3_
00000000000e2620 W _ZN5boost4asio9execution6detail17any_executor_base11copy_objectINS0_10io_context19basic_executor_typeISaIvELj4EEEEEvRS3_RKS3_
00000000000e1b40 W _ZN5boost4asio9execution6detail17any_executor_base11move_objectINS0_10io_context19basic_executor_typeISaIvELj0EEEEEvRS3_S9_
00000000000e1d50 W _ZN5boost4asio9execution6detail17any_executor_base11move_objectINS0_10io_context19basic_executor_typeISaIvELj4EEEEEvRS3_S9_
00000000000e1600 W _ZN5boost4asio9execution6detail17any_executor_base11target_voidERKS3_
00000000000e15d0 W _ZN5boost4asio9execution6detail17any_executor_base12destroy_voidERS3_
00000000000e2d10 W _ZN5boost4asio9execution6detail17any_executor_base12execute_voidERKS3_ONS0_6detail17executor_functionE
00000000000e1b60 W _ZN5boost4asio9execution6detail17any_executor_base13target_objectINS0_10io_context19basic_executor_typeISaIvELj0EEEEEPKvRKS3_
00000000000e1d70 W _ZN5boost4asio9execution6detail17any_executor_base13target_objectINS0_10io_context19basic_executor_typeISaIvELj4EEEEEPKvRKS3_
00000000000e1b10 W _ZN5boost4asio9execution6detail17any_executor_base14destroy_objectINS0_10io_context19basic_executor_typeISaIvELj0EEEEEvRS3_
00000000000e5410 W _ZN5boost4asio9execution6detail17any_executor_base14destroy_objectINS0_10io_context19basic_executor_typeISaIvELj4EEEEEvRS3_
00000000000e1ad0 W _ZN5boost4asio9execution6detail17any_executor_base14target_type_exINS0_10io_context19basic_executor_typeISaIvELj0EEEEERKSt9type_infov
00000000000e1d10 W _ZN5boost4asio9execution6detail17any_executor_base14target_type_exINS0_10io_context19basic_executor_typeISaIvELj4EEEEERKSt9type_infov
00000000000e1610 W _ZN5boost4asio9execution6detail17any_executor_base16target_type_voidEv
00000000000e2cd0 W _ZN5boost4asio9execution6detail17any_executor_base21blocking_execute_voidERKS3_NS0_6detail22executor_function_viewE
00000000000e1ae0 W _ZN5boost4asio9execution6detail17any_executor_base8equal_exINS0_10io_context19basic_executor_typeISaIvELj0EEEEEbRKS3_SA_
00000000000e1d20 W _ZN5boost4asio9execution6detail17any_executor_base8equal_exINS0_10io_context19basic_executor_typeISaIvELj4EEEEEbRKS3_SA_
00000000000e1f20 W _ZN5boost4asio9execution6detail17any_executor_base8query_fnINS0_10io_context19basic_executor_typeISaIvELj0EEENS1_11prefer_onlyINS2_12relationship14continuation_tILi0EEEEEEEvPvPKvSG_
00000000000e1ef0 W _ZN5boost4asio9execution6detail17any_executor_base8query_fnINS0_10io_context19basic_executor_typeISaIvELj0EEENS1_11prefer_onlyINS2_12relationship6fork_tILi0EEEEEEEvPvPKvSG_
00000000000e1ed0 W _ZN5boost4asio9execution6detail17any_executor_base8query_fnINS0_10io_context19basic_executor_typeISaIvELj0EEENS1_11prefer_onlyINS2_16outstanding_work11untracked_tILi0EEEEEEEvPvPKvSG_
00000000000e1eb0 W _ZN5boost4asio9execution6detail17any_executor_base8query_fnINS0_10io_context19basic_executor_typeISaIvELj0EEENS1_11prefer_onlyINS2_16outstanding_work9tracked_tILi0EEEEEEEvPvPKvSG_
00000000000e1e80 W _ZN5boost4asio9execution6detail17any_executor_base8query_fnINS0_10io_context19basic_executor_typeISaIvELj0EEENS1_11prefer_onlyINS2_8blocking10possibly_tILi0EEEEEEEvPvPKvSG_
00000000000e17f0 W _ZN5boost4asio9execution6detail17any_executor_base8query_fnINS0_10io_context19basic_executor_typeISaIvELj0EEENS1_12context_as_tIRNS0_17execution_contextEEEEEvPvPKvSF_
00000000000e1e50 W _ZN5boost4asio9execution6detail17any_executor_base8query_fnINS0_10io_context19basic_executor_typeISaIvELj0EEENS2_8blocking7never_tILi0EEEEEvPvPKvSE_
00000000000e2020 W _ZN5boost4asio9execution6detail17any_executor_base8query_fnINS0_10io_context19basic_executor_typeISaIvELj4EEENS1_11prefer_onlyINS2_12relationship14continuation_tILi0EEEEEEEvPvPKvSG_
00000000000e1ff0 W _ZN5boost4asio9execution6detail17any_executor_base8query_fnINS0_10io_context19basic_executor_typeISaIvELj4EEENS1_11prefer_onlyINS2_12relationship6fork_tILi0EEEEEEEvPvPKvSG_
00000000000e1fd0 W _ZN5boost4asio9execution6detail17any_executor_base8query_fnINS0_10io_context19basic_executor_typeISaIvELj4EEENS1_11prefer_onlyINS2_16outstanding_work11untracked_tILi0EEEEEEEvPvPKvSG_
00000000000e1fb0 W _ZN5boost4asio9execution6detail17any_executor_base8query_fnINS0_10io_context19basic_executor_typeISaIvELj4EEENS1_11prefer_onlyINS2_16outstanding_work9tracked_tILi0EEEEEEEvPvPKvSG_
00000000000e1f80 W _ZN5boost4asio9execution6detail17any_executor_base8query_fnINS0_10io_context19basic_executor_typeISaIvELj4EEENS1_11prefer_onlyINS2_8blocking10possibly_tILi0EEEEEEEvPvPKvSG_
00000000000e1b70 W _ZN5boost4asio9execution6detail17any_executor_base8query_fnINS0_10io_context19basic_executor_typeISaIvELj4EEENS1_12context_as_tIRNS0_17execution_contextEEEEEvPvPKvSF_
00000000000e1f50 W _ZN5boost4asio9execution6detail17any_executor_base8query_fnINS0_10io_context19basic_executor_typeISaIvELj4EEENS2_8blocking7never_tILi0EEEEEvPvPKvSE_
00000000000e2db0 W _ZN5boost4asio9execution6detail17any_executor_base8query_fnIvNS1_11prefer_onlyINS2_12relationship14continuation_tILi0EEEEEEEvPvPKvSC_
00000000000e2da0 W _ZN5boost4asio9execution6detail17any_executor_base8query_fnIvNS1_11prefer_onlyINS2_12relationship6fork_tILi0EEEEEEEvPvPKvSC_
00000000000e2d90 W _ZN5boost4asio9execution6detail17any_executor_base8query_fnIvNS1_11prefer_onlyINS2_16outstanding_work11untracked_tILi0EEEEEEEvPvPKvSC_
00000000000e2d80 W _ZN5boost4asio9execution6detail17any_executor_base8query_fnIvNS1_11prefer_onlyINS2_16outstanding_work9tracked_tILi0EEEEEEEvPvPKvSC_
00000000000e2d70 W _ZN5boost4asio9execution6detail17any_executor_base8query_fnIvNS1_11prefer_onlyINS2_8blocking10possibly_tILi0EEEEEEEvPvPKvSC_
00000000000e2d50 W _ZN5boost4asio9execution6detail17any_executor_base8query_fnIvNS1_12context_as_tIRNS0_17execution_contextEEEEEvPvPKvSB_
00000000000e2d60 W _ZN5boost4asio9execution6detail17any_executor_base8query_fnIvNS2_8blocking7never_tILi0EEEEEvPvPKvSA_
00000000000e15e0 W _ZN5boost4asio9execution6detail17any_executor_base9copy_voidERS3_RKS3_
00000000000e15f0 W _ZN5boost4asio9execution6detail17any_executor_base9move_voidERS3_S4_
00000000000e1830 W _ZN5boost4asio9execution6detail17any_executor_base9prefer_fnINS1_12any_executorIJNS1_12context_as_tIRNS0_17execution_contextEEENS2_8blocking7never_tILi0EEENS1_11prefer_onlyINSA_10possibly_tILi0EEEEENSD_INS2_16outstanding_work9tracked_tILi0EEEEENSD_INSH_11untracked_tILi0EEEEENSD_INS2_12relationship6fork_tILi0EEEEENSD_INSO_14continuation_tILi0EEEEEEEENS0_10io_context19basic_executor_typeISaIvELj0EEES9_EET_PKvS12_
00000000000e18a0 W _ZN5boost4asio9execution6detail17any_executor_base9prefer_fnINS1_12any_executorIJNS1_12context_as_tIRNS0_17execution_contextEEENS2_8blocking7never_tILi0EEENS1_11prefer_onlyINSA_10possibly_tILi0EEEEENSD_INS2_16outstanding_work9tracked_tILi0EEEEENSD_INSH_11untracked_tILi0EEEEENSD_INS2_12relationship6fork_tILi0EEEEENSD_INSO_14continuation_tILi0EEEEEEEENS0_10io_context19basic_executor_typeISaIvELj0EEESC_EET_PKvS12_
00000000000e1910 W _ZN5boost4asio9execution6detail17any_executor_base9prefer_fnINS1_12any_executorIJNS1_12context_as_tIRNS0_17execution_contextEEENS2_8blocking7never_tILi0EEENS1_11prefer_onlyINSA_10possibly_tILi0EEEEENSD_INS2_16outstanding_work9tracked_tILi0EEEEENSD_INSH_11untracked_tILi0EEEEENSD_INS2_12relationship6fork_tILi0EEEEENSD_INSO_14continuation_tILi0EEEEEEEENS0_10io_context19basic_executor_typeISaIvELj0EEESG_EET_PKvS12_
00000000000e23f0 W _ZN5boost4asio9execution6detail17any_executor_base9prefer_fnINS1_12any_executorIJNS1_12context_as_tIRNS0_17execution_contextEEENS2_8blocking7never_tILi0EEENS1_11prefer_onlyINSA_10possibly_tILi0EEEEENSD_INS2_16outstanding_work9tracked_tILi0EEEEENSD_INSH_11untracked_tILi0EEEEENSD_INS2_12relationship6fork_tILi0EEEEENSD_INSO_14continuation_tILi0EEEEEEEENS0_10io_context19basic_executor_typeISaIvELj0EEESK_EET_PKvS12_
00000000000e19b0 W _ZN5boost4asio9execution6detail17any_executor_base9prefer_fnINS1_12any_executorIJNS1_12context_as_tIRNS0_17execution_contextEEENS2_8blocking7never_tILi0EEENS1_11prefer_onlyINSA_10possibly_tILi0EEEEENSD_INS2_16outstanding_work9tracked_tILi0EEEEENSD_INSH_11untracked_tILi0EEEEENSD_INS2_12relationship6fork_tILi0EEEEENSD_INSO_14continuation_tILi0EEEEEEEENS0_10io_context19basic_executor_typeISaIvELj0EEESN_EET_PKvS12_
00000000000e1a20 W _ZN5boost4asio9execution6detail17any_executor_base9prefer_fnINS1_12any_executorIJNS1_12context_as_tIRNS0_17execution_contextEEENS2_8blocking7never_tILi0EEENS1_11prefer_onlyINSA_10possibly_tILi0EEEEENSD_INS2_16outstanding_work9tracked_tILi0EEEEENSD_INSH_11untracked_tILi0EEEEENSD_INS2_12relationship6fork_tILi0EEEEENSD_INSO_14continuation_tILi0EEEEEEEENS0_10io_context19basic_executor_typeISaIvELj0EEESR_EET_PKvS12_
00000000000e1a90 W _ZN5boost4asio9execution6detail17any_executor_base9prefer_fnINS1_12any_executorIJNS1_12context_as_tIRNS0_17execution_contextEEENS2_8blocking7never_tILi0EEENS1_11prefer_onlyINSA_10possibly_tILi0EEEEENSD_INS2_16outstanding_work9tracked_tILi0EEEEENSD_INSH_11untracked_tILi0EEEEENSD_INS2_12relationship6fork_tILi0EEEEENSD_INSO_14continuation_tILi0EEEEEEEENS0_10io_context19basic_executor_typeISaIvELj0EEESU_EET_PKvS12_
00000000000e1bb0 W _ZN5boost4asio9execution6detail17any_executor_base9prefer_fnINS1_12any_executorIJNS1_12context_as_tIRNS0_17execution_contextEEENS2_8blocking7never_tILi0EEENS1_11prefer_onlyINSA_10possibly_tILi0EEEEENSD_INS2_16outstanding_work9tracked_tILi0EEEEENSD_INSH_11untracked_tILi0EEEEENSD_INS2_12relationship6fork_tILi0EEEEENSD_INSO_14continuation_tILi0EEEEEEEENS0_10io_context19basic_executor_typeISaIvELj4EEES9_EET_PKvS12_
00000000000e2490 W _ZN5boost4asio9execution6detail17any_executor_base9prefer_fnINS1_12any_executorIJNS1_12context_as_tIRNS0_17execution_contextEEENS2_8blocking7never_tILi0EEENS1_11prefer_onlyINSA_10possibly_tILi0EEEEENSD_INS2_16outstanding_work9tracked_tILi0EEEEENSD_INSH_11untracked_tILi0EEEEENSD_INS2_12relationship6fork_tILi0EEEEENSD_INSO_14continuation_tILi0EEEEEEEENS0_10io_context19basic_executor_typeISaIvELj4EEESC_EET_PKvS12_
00000000000e24e0 W _ZN5boost4asio9execution6detail17any_executor_base9prefer_fnINS1_12any_executorIJNS1_12context_as_tIRNS0_17execution_contextEEENS2_8blocking7never_tILi0EEENS1_11prefer_onlyINSA_10possibly_tILi0EEEEENSD_INS2_16outstanding_work9tracked_tILi0EEEEENSD_INSH_11untracked_tILi0EEEEENSD_INS2_12relationship6fork_tILi0EEEEENSD_INSO_14continuation_tILi0EEEEEEEENS0_10io_context19basic_executor_typeISaIvELj4EEESG_EET_PKvS12_
00000000000e2530 W _ZN5boost4asio9execution6detail17any_executor_base9prefer_fnINS1_12any_executorIJNS1_12context_as_tIRNS0_17execution_contextEEENS2_8blocking7never_tILi0EEENS1_11prefer_onlyINSA_10possibly_tILi0EEEEENSD_INS2_16outstanding_work9tracked_tILi0EEEEENSD_INSH_11untracked_tILi0EEEEENSD_INS2_12relationship6fork_tILi0EEEEENSD_INSO_14continuation_tILi0EEEEEEEENS0_10io_context19basic_executor_typeISaIvELj4EEESK_EET_PKvS12_
00000000000e1c70 W _ZN5boost4asio9execution6detail17any_executor_base9prefer_fnINS1_12any_executorIJNS1_12context_as_tIRNS0_17execution_contextEEENS2_8blocking7never_tILi0EEENS1_11prefer_onlyINSA_10possibly_tILi0EEEEENSD_INS2_16outstanding_work9tracked_tILi0EEEEENSD_INSH_11untracked_tILi0EEEEENSD_INS2_12relationship6fork_tILi0EEEEENSD_INSO_14continuation_tILi0EEEEEEEENS0_10io_context19basic_executor_typeISaIvELj4EEESN_EET_PKvS12_
00000000000e2580 W _ZN5boost4asio9execution6detail17any_executor_base9prefer_fnINS1_12any_executorIJNS1_12context_as_tIRNS0_17execution_contextEEENS2_8blocking7never_tILi0EEENS1_11prefer_onlyINSA_10possibly_tILi0EEEEENSD_INS2_16outstanding_work9tracked_tILi0EEEEENSD_INSH_11untracked_tILi0EEEEENSD_INS2_12relationship6fork_tILi0EEEEENSD_INSO_14continuation_tILi0EEEEEEEENS0_10io_context19basic_executor_typeISaIvELj4EEESR_EET_PKvS12_
00000000000e25d0 W _ZN5boost4asio9execution6detail17any_executor_base9prefer_fnINS1_12any_executorIJNS1_12context_as_tIRNS0_17execution_contextEEENS2_8blocking7never_tILi0EEENS1_11prefer_onlyINSA_10possibly_tILi0EEEEENSD_INS2_16outstanding_work9tracked_tILi0EEEEENSD_INSH_11untracked_tILi0EEEEENSD_INS2_12relationship6fork_tILi0EEEEENSD_INSO_14continuation_tILi0EEEEEEEENS0_10io_context19basic_executor_typeISaIvELj4EEESU_EET_PKvS12_
00000000000e2dd0 W _ZN5boost4asio9execution6detail17any_executor_base9prefer_fnINS1_12any_executorIJNS1_12context_as_tIRNS0_17execution_contextEEENS2_8blocking7never_tILi0EEENS1_11prefer_onlyINSA_10possibly_tILi0EEEEENSD_INS2_16outstanding_work9tracked_tILi0EEEEENSD_INSH_11untracked_tILi0EEEEENSD_INS2_12relationship6fork_tILi0EEEEENSD_INSO_14continuation_tILi0EEEEEEEEvS9_EET_PKvSY_
00000000000e2df0 W _ZN5boost4asio9execution6detail17any_executor_base9prefer_fnINS1_12any_executorIJNS1_12context_as_tIRNS0_17execution_contextEEENS2_8blocking7never_tILi0EEENS1_11prefer_onlyINSA_10possibly_tILi0EEEEENSD_INS2_16outstanding_work9tracked_tILi0EEEEENSD_INSH_11untracked_tILi0EEEEENSD_INS2_12relationship6fork_tILi0EEEEENSD_INSO_14continuation_tILi0EEEEEEEEvSC_EET_PKvSY_
00000000000e2e10 W _ZN5boost4asio9execution6detail17any_executor_base9prefer_fnINS1_12any_executorIJNS1_12context_as_tIRNS0_17execution_contextEEENS2_8blocking7never_tILi0EEENS1_11prefer_onlyINSA_10possibly_tILi0EEEEENSD_INS2_16outstanding_work9tracked_tILi0EEEEENSD_INSH_11untracked_tILi0EEEEENSD_INS2_12relationship6fork_tILi0EEEEENSD_INSO_14continuation_tILi0EEEEEEEEvSG_EET_PKvSY_
00000000000e2e30 W _ZN5boost4asio9execution6detail17any_executor_base9prefer_fnINS1_12any_executorIJNS1_12context_as_tIRNS0_17execution_contextEEENS2_8blocking7never_tILi0EEENS1_11prefer_onlyINSA_10possibly_tILi0EEEEENSD_INS2_16outstanding_work9tracked_tILi0EEEEENSD_INSH_11untracked_tILi0EEEEENSD_INS2_12relationship6fork_tILi0EEEEENSD_INSO_14continuation_tILi0EEEEEEEEvSK_EET_PKvSY_
00000000000e2e50 W _ZN5boost4asio9execution6detail17any_executor_base9prefer_fnINS1_12any_executorIJNS1_12context_as_tIRNS0_17execution_contextEEENS2_8blocking7never_tILi0EEENS1_11prefer_onlyINSA_10possibly_tILi0EEEEENSD_INS2_16outstanding_work9tracked_tILi0EEEEENSD_INSH_11untracked_tILi0EEEEENSD_INS2_12relationship6fork_tILi0EEEEENSD_INSO_14continuation_tILi0EEEEEEEEvSN_EET_PKvSY_
00000000000e2e70 W _ZN5boost4asio9execution6detail17any_executor_base9prefer_fnINS1_12any_executorIJNS1_12context_as_tIRNS0_17execution_contextEEENS2_8blocking7never_tILi0EEENS1_11prefer_onlyINSA_10possibly_tILi0EEEEENSD_INS2_16outstanding_work9tracked_tILi0EEEEENSD_INSH_11untracked_tILi0EEEEENSD_INS2_12relationship6fork_tILi0EEEEENSD_INSO_14continuation_tILi0EEEEEEEEvSR_EET_PKvSY_
00000000000e2e90 W _ZN5boost4asio9execution6detail17any_executor_base9prefer_fnINS1_12any_executorIJNS1_12context_as_tIRNS0_17execution_contextEEENS2_8blocking7never_tILi0EEENS1_11prefer_onlyINSA_10possibly_tILi0EEEEENSD_INS2_16outstanding_work9tracked_tILi0EEEEENSD_INSH_11untracked_tILi0EEEEENSD_INS2_12relationship6fork_tILi0EEEEENSD_INSO_14continuation_tILi0EEEEEEEEvSU_EET_PKvSY_
00000000000e3390 W _ZN5boost6system12system_errorD0Ev
00000000000e2ea0 W _ZN5boost6system12system_errorD1Ev
00000000000e2ea0 W _ZN5boost6system12system_errorD2Ev
00000000000e2ca0 W _ZN5boost6system6detail12std_categoryD0Ev
00000000000e2c80 W _ZN5boost6system6detail12std_categoryD1Ev
00000000000e2c80 W _ZN5boost6system6detail12std_categoryD2Ev
00000000000e9ad0 W _ZN5boost6system6detail15to_std_categoryERKNS0_14error_categoryE
000000000037c820 u _ZN5boost6system6detail17system_cat_holderIvE8instanceE
000000000037c830 u _ZN5boost6system6detail18generic_cat_holderIvE8instanceE
00000000000a6130 W _ZN5boost9algorithm3hexIPhSt16ostream_iteratorIccSt11char_traitsIcEEEENS_9enable_ifINS_11is_integralINS0_6detail19hex_iterator_traitsIT_E10value_typeEEET0_E4typeESB_SB_SF_
00000000000ebb70 T _ZN5CLock4lockEv
00000000000ebb20 T _ZN5CLock4LockEv
00000000000ebb80 T _ZN5CLock6unlockEv
00000000000ebb50 T _ZN5CLock6UnlockEv
0000000000085520 T _ZN5share11get_wire_idEj
0000000000085530 T _ZN5share11set_wire_idEjj
0000000000085540 T _ZN5share12set_wire_idsESt6vectorIjSaIjEE
00000000000856b0 T _ZN5share13get_bitlengthEv
0000000000085af0 T _ZN5share13set_bitlengthEj
0000000000085780 T _ZN5share14get_share_typeEv
0000000000085770 T _ZN5share16get_circuit_typeEv
00000000000856c0 T _ZN5share17get_max_bitlengthEv
0000000000085750 T _ZN5share17get_nvals_on_wireEj
00000000000856d0 T _ZN5share17set_max_bitlengthEj
0000000000085ba0 T _ZN5share21get_wire_ids_as_shareEj
0000000000085510 T _ZN5share4initEP7Circuitj
00000000000856e0 T _ZN5share9get_nvalsEv
0000000000085b30 T _ZN5shareC1EjP7Circuit
0000000000085940 T _ZN5shareC1ESt6vectorIjSaIjEEP7Circuit
0000000000085b30 T _ZN5shareC2EjP7Circuit
0000000000085940 T _ZN5shareC2ESt6vectorIjSaIjEEP7Circuit
00000000000ebbd0 T _ZN6CEvent3SetEv
00000000000ebc40 T _ZN6CEvent4WaitEv
00000000000ebd50 T _ZN6CEvent5ResetEv
00000000000ebb90 T _ZN6CEventC1Ebb
00000000000ebb90 T _ZN6CEventC2Ebb
00000000000d5680 T _ZN6crypto12gen_rnd_permEPjj
00000000000d5450 T _ZN6crypto12init_aes_keyEP17evp_cipher_ctx_stjPh7bc_modePKhb
00000000000d5510 T _ZN6crypto12init_aes_keyEP17evp_cipher_ctx_stPh7bc_modePKh
00000000000d54b0 T _ZN6crypto12seed_aes_encEPh7bc_modePKh
00000000000d5360 T _ZN6crypto12seed_aes_keyEP17evp_cipher_ctx_stjPh7bc_modePKhb
00000000000d5460 T _ZN6crypto12seed_aes_keyEP17evp_cipher_ctx_stPh7bc_modePKhb
00000000000d5350 T _ZN6crypto13clean_aes_keyEP17evp_cipher_ctx_st
00000000000d5490 T _ZN6crypto13seed_aes_hashEPh7bc_modePKh
00000000000d5aa0 T _ZN6crypto14free_prf_stateEP13prf_state_ctx
00000000000d57c0 T _ZN6crypto14get_hash_bytesEv
00000000000d5850 T _ZN6crypto14init_prf_stateEP13prf_state_ctxPh
00000000000d58a0 T _ZN6crypto15gen_common_seedEP13prf_state_ctxR7CSocket
00000000000d5220 T _ZN6crypto15gen_rnd_uniformEPjj
00000000000d5b20 T _ZN6crypto17gen_rnd_from_seedEPhjS0_
00000000000d5770 T _ZN6crypto17get_aes_key_bytesEv
00000000000d55e0 T _ZN6crypto18fixed_key_aes_hashEP17evp_cipher_ctx_stPhjS2_j
00000000000d55c0 T _ZN6crypto19hash_non_threadsafeEPhjS0_j
00000000000d57f0 T _ZN6crypto4hashEPhjS0_j
00000000000d5ef0 T _ZN6crypto4initEjPh
00000000000d52f0 T _ZN6crypto7decryptEP17evp_cipher_ctx_stPhS2_j
00000000000d5330 T _ZN6crypto7decryptEPhS0_j
00000000000d52d0 T _ZN6crypto7encryptEP17evp_cipher_ctx_stPhS2_j
00000000000d5310 T _ZN6crypto7encryptEPhS0_j
00000000000d5080 T _ZN6crypto7gen_rndEPhj
00000000000d55a0 T _ZN6crypto8hash_bufEPhjS0_jS0_
00000000000d5520 T _ZN6crypto8hash_ctrEPhjS0_jm
00000000000d5100 T _ZN6crypto9gen_fieldE10field_type
00000000000d6040 T _ZN6cryptoC1Ej
00000000000d6010 T _ZN6cryptoC1EjPh
00000000000d6040 T _ZN6cryptoC2Ej
00000000000d6010 T _ZN6cryptoC2EjPh
00000000000d5ad0 T _ZN6cryptoD1Ev
00000000000d5ad0 T _ZN6cryptoD2Ev
00000000000d9440 T _ZN6ecc_fe12shallow_copyEP5eb_stS1_
00000000000d8ee0 T _ZN6ecc_fe15export_to_bytesEPh
00000000000d8e60 T _ZN6ecc_fe17import_from_bytesEPh
00000000000d9a90 T _ZN6ecc_fe18set_double_pow_mulEP2feP3numS1_S3_
00000000000d8dd0 T _ZN6ecc_fe20sample_fe_from_bytesEPhj
00000000000d9650 T _ZN6ecc_fe2eqEP2fe
00000000000d9490 T _ZN6ecc_fe3setEP2fe
00000000000d9080 T _ZN6ecc_fe4initEv
00000000000d8b30 T _ZN6ecc_fe5printEv
00000000000d9480 T _ZN6ecc_fe7get_valEP5eb_st
00000000000d95b0 T _ZN6ecc_fe7set_divEP2feS1_
00000000000d9510 T _ZN6ecc_fe7set_mulEP2feS1_
00000000000d99f0 T _ZN6ecc_fe7set_powEP2feP3num
00000000000d9100 T _ZN6ecc_feC1EP9ecc_field
00000000000d9160 T _ZN6ecc_feC1EP9ecc_fieldP5eb_st
00000000000d9100 T _ZN6ecc_feC2EP9ecc_field
00000000000d9160 T _ZN6ecc_feC2EP9ecc_fieldP5eb_st
00000000000d8a80 T _ZN6ecc_feD0Ev
00000000000d8a10 T _ZN6ecc_feD1Ev
00000000000d8a10 T _ZN6ecc_feD2Ev
00000000000cdd30 W _ZN6FPType7getTypeEv
00000000000db000 T _ZN6gmp_fe15export_to_bytesEPh
00000000000da160 T _ZN6gmp_fe17import_from_bytesEPh
00000000000dad20 T _ZN6gmp_fe18set_double_pow_mulEP2feP3numS1_S3_
00000000000dac10 T _ZN6gmp_fe20sample_fe_from_bytesEPhj
00000000000daad0 T _ZN6gmp_fe2eqEP2fe
00000000000daab0 T _ZN6gmp_fe3setEP2fe
00000000000db040 W _ZN6gmp_fe4initEv
00000000000da310 T _ZN6gmp_fe5printEv
00000000000daaa0 T _ZN6gmp_fe7get_valEv
00000000000daba0 T _ZN6gmp_fe7set_divEP2feS1_
00000000000dab00 T _ZN6gmp_fe7set_mulEP2feS1_
00000000000dab50 T _ZN6gmp_fe7set_powEP2feP3num
00000000000da8a0 T _ZN6gmp_feC1EP11prime_field
00000000000da900 T _ZN6gmp_feC1EP11prime_fieldP12__mpz_struct
00000000000da8a0 T _ZN6gmp_feC2EP11prime_field
00000000000da900 T _ZN6gmp_feC2EP11prime_fieldP12__mpz_struct
00000000000da100 T _ZN6gmp_feD0Ev
00000000000da0e0 T _ZN6gmp_feD1Ev
00000000000da0e0 T _ZN6gmp_feD2Ev
00000000000cdd90 W _ZN6UINT3214getNumOfDigitsEv
00000000000d48f0 T _ZN7channel10signal_endEv
00000000000d4490 T _ZN7channel11send_id_lenEPhmmm
00000000000d4910 T _ZN7channel12wait_for_finEv
00000000000d4470 T _ZN7channel13blocking_sendEP6CEventPhm
00000000000d48d0 T _ZN7channel14data_availableEv
00000000000d4930 T _ZN7channel15synchronize_endEv
00000000000d4660 T _ZN7channel16blocking_receiveEPhm
00000000000d4530 T _ZN7channel16blocking_receiveEv
00000000000d44b0 T _ZN7channel20blocking_send_id_lenEP6CEventPhmmm
00000000000d4630 T _ZN7channel23blocking_receive_id_lenEPPhPmS2_
00000000000d4460 T _ZN7channel4sendEPhm
00000000000d4890 T _ZN7channel8is_aliveEv
00000000000d4320 T _ZN7channelC1EhP9RcvThreadP9SndThread
00000000000d4320 T _ZN7channelC2EhP9RcvThreadP9SndThread
00000000000d43f0 T _ZN7channelD1Ev
00000000000d43f0 T _ZN7channelD2Ev
0000000000082690 T _ZN7Circuit10PutA2BGateEP5sharePS_
0000000000082660 T _ZN7Circuit10PutY2AGateEP5sharePS_
00000000000834a0 T _ZN7Circuit13PutAssertGateEP5sharehj
0000000000083270 T _ZN7Circuit13PutAssertGateEP5sharejj
0000000000083150 T _ZN7Circuit13PutAssertGateEP5sharemj
0000000000083490 T _ZN7Circuit13PutAssertGateEP5sharePhj
0000000000083260 T _ZN7Circuit13PutAssertGateEP5sharePjj
0000000000083140 T _ZN7Circuit13PutAssertGateEP5sharePmj
0000000000083380 T _ZN7Circuit13PutAssertGateEP5sharePtj
0000000000083390 T _ZN7Circuit13PutAssertGateEP5sharetj
00000000000828d0 T _ZN7Circuit13PutSubsetGateEjPjjb
0000000000084300 T _ZN7Circuit13PutSubsetGateEP5sharePjjb
0000000000083af0 T _ZN7Circuit15PutCombinerGateEP5share
0000000000083c10 T _ZN7Circuit15PutCombinerGateEP5shareS1_
00000000000826c0 T _ZN7Circuit15PutCombinerGateESt6vectorIjSaIjEE
0000000000082ae0 T _ZN7Circuit15PutRepeaterGateEjj
00000000000844a0 T _ZN7Circuit15PutRepeaterGateEjP5share
0000000000082900 T _ZN7Circuit15PutSplitterGateEj
00000000000829a0 T _ZN7Circuit15PutSplitterGateEjRKSt6vectorIjSaIjEE
0000000000084260 T _ZN7Circuit15PutSplitterGateEP5share
0000000000082cc0 T _ZN7Circuit16EnsureOutputGateEP5share
0000000000082c70 T _ZN7Circuit16UpdateLocalQueueEP5share
0000000000082d50 T _ZN7Circuit17PutPrintValueGateEP5shareSs
00000000000833b0 T _ZN7Circuit17PutSIMDAssertGateEP5sharejPhj
0000000000083170 T _ZN7Circuit17PutSIMDAssertGateEP5sharejPjj
0000000000083000 T _ZN7Circuit17PutSIMDAssertGateEP5sharejPmj
0000000000083290 T _ZN7Circuit17PutSIMDAssertGateEP5sharejPtj
00000000000825b0 T _ZN7Circuit18GetOutputGateValueEj
0000000000082500 T _ZN7Circuit18GetOutputGateValueEjRPm
00000000000838a0 T _ZN7Circuit18PutPermutationGateEP5sharePj
0000000000082b10 T _ZN7Circuit18PutPermutationGateESt6vectorIjSaIjEEPj
00000000000839d0 T _ZN7Circuit19PutCombineAtPosGateEP5sharej
00000000000827c0 T _ZN7Circuit19PutCombineAtPosGateESt6vectorIjSaIjEEj
00000000000824e0 T _ZN7Circuit21GetGateSpecificOutputEj
0000000000082c20 T _ZN7Circuit22UpdateInteractiveQueueEP5share
00000000000834c0 T _ZN7Circuit28ExportCircuitInBristolFormatEP5shareS1_S1_PKc
00000000000845d0 T _ZN7Circuit4InitEv
0000000000084910 T _ZN7Circuit5ResetEv
00000000000824d0 T _ZN7Circuit7CleanupEv
0000000000073350 W _ZN7CircuitD0Ev
00000000000730c0 W _ZN7CircuitD1Ev
00000000000730c0 W _ZN7CircuitD2Ev
00000000000de240 T _ZN7CSocket11ResetRcvCntEv
00000000000de1f0 T _ZN7CSocket11ResetSndCntEv
00000000000df5b0 T _ZN7CSocket4BindERKSst
00000000000de6c0 T _ZN7CSocket4SendEPKvm
00000000000df050 T _ZN7CSocket5CloseEv
00000000000dfd90 T _ZN7CSocket6AcceptEv
00000000000deab0 T _ZN7CSocket6ListenEi
00000000000de290 T _ZN7CSocket6SocketEv
00000000000e0670 T _ZN7CSocket7ConnectERKSst
00000000000de2a0 T _ZN7CSocket7ReceiveEPvm
00000000000df230 T _ZN7CSocketC1Eb
00000000000df230 T _ZN7CSocketC2Eb
00000000000df1b0 T _ZN7CSocketD1Ev
00000000000df1b0 T _ZN7CSocketD2Ev
00000000000ebae0 T _ZN7CThread4WaitEv
00000000000eba60 T _ZN7CThread5StartEv
00000000000eba00 T _ZN7CThreadC1Ev
00000000000eba00 T _ZN7CThreadC2Ev
00000000000eba40 T _ZN7CThreadD0Ev
00000000000eba20 T _ZN7CThreadD1Ev
00000000000eba20 T _ZN7CThreadD2Ev
00000000000d89e0 T _ZN7ecc_num11set_mul_modEP3numS1_S1_
00000000000d99c0 T _ZN7ecc_num12shallow_copyEP5bn_stS1_
00000000000d8cb0 T _ZN7ecc_num15export_to_bytesEPhj
00000000000d8d40 T _ZN7ecc_num17import_from_bytesEPhj
00000000000d9f20 T _ZN7ecc_num3modEP3num
00000000000d9cb0 T _ZN7ecc_num3setEP3num
00000000000d8c40 T _ZN7ecc_num5printEv
00000000000d89d0 T _ZN7ecc_num6set_siEi
00000000000d99e0 T _ZN7ecc_num7get_valEP5bn_st
00000000000d9d40 T _ZN7ecc_num7set_addEP3numS1_
00000000000d9e80 T _ZN7ecc_num7set_mulEP3numS1_
00000000000d9de0 T _ZN7ecc_num7set_subEP3numS1_
00000000000d96e0 T _ZN7ecc_numC1EP9ecc_field
00000000000d97c0 T _ZN7ecc_numC1EP9ecc_fieldP5bn_st
00000000000d96e0 T _ZN7ecc_numC2EP9ecc_field
00000000000d97c0 T _ZN7ecc_numC2EP9ecc_fieldP5bn_st
00000000000d8b10 T _ZN7ecc_numD0Ev
00000000000d8aa0 T _ZN7ecc_numD1Ev
00000000000d8aa0 T _ZN7ecc_numD2Ev
00000000000da800 T _ZN7gmp_num11set_mul_modEP3numS1_S1_
00000000000dafe0 T _ZN7gmp_num15export_to_bytesEPhj
00000000000da130 T _ZN7gmp_num17import_from_bytesEPhj
00000000000da740 T _ZN7gmp_num3modEP3num
00000000000da690 T _ZN7gmp_num3setEP3num
00000000000da200 T _ZN7gmp_num5printEv
00000000000da120 T _ZN7gmp_num6set_siEi
00000000000da680 T _ZN7gmp_num7get_valEv
00000000000da6b0 T _ZN7gmp_num7set_addEP3numS1_
00000000000da710 T _ZN7gmp_num7set_mulEP3numS1_
00000000000da6e0 T _ZN7gmp_num7set_subEP3numS1_
00000000000da390 T _ZN7gmp_numC1EP11prime_field
00000000000da3f0 T _ZN7gmp_numC1EP11prime_fieldP12__mpz_struct
00000000000da390 T _ZN7gmp_numC2EP11prime_field
00000000000da3f0 T _ZN7gmp_numC2EP11prime_fieldP12__mpz_struct
00000000000da0c0 T _ZN7gmp_numD0Ev
00000000000da0a0 T _ZN7gmp_numD1Ev
00000000000da0a0 T _ZN7gmp_numD2Ev
00000000000a4f00 T _ZN7Sharing15ReadOutputValueEj9e_circuitPj
00000000000a5470 T _ZN7Sharing17PreCompFileDeleteEv
00000000000a50a0 T _ZN7Sharing18EvaluateAssertGateEj9e_circuit
00000000000a5400 T _ZN7Sharing20EvaluateCallbackGateEj
00000000000a5dc0 T _ZN7Sharing20EvaluatePrintValGateEj9e_circuit
00000000000a4ef0 T _ZN7Sharing20GetPreCompPhaseValueEv
00000000000a4ee0 T _ZN7Sharing20SetPreCompPhaseValueE13ePreCompPhase
00000000000a5240 T _ZN7Sharing8FreeGateEP4GATE
00000000000a53d0 T _ZN7Sharing8UsedGateEj
00000000000a4cd0 T _ZN7SharingC1E9e_sharing6e_rolejP10ABYCircuitP6cryptoRKSs
00000000000a4cd0 T _ZN7SharingC2E9e_sharing6e_rolejP10ABYCircuitP6cryptoRKSs
00000000000a4ec0 T _ZN7SharingD0Ev
00000000000a4e70 T _ZN7SharingD1Ev
00000000000a4e70 T _ZN7SharingD2Ev
0000000000071060 T _ZN8ABYParty11ExecCircuitEv
000000000006f9c0 T _ZN8ABYParty11GetSentDataE8ABYPHASE
000000000006eff0 T _ZN8ABYParty11GetSharingsEv
0000000000071650 T _ZN8ABYParty11InitCircuitEjjRKSs
000000000006fa20 T _ZN8ABYParty13GetTotalDepthEv
000000000006fa00 T _ZN8ABYParty13GetTotalGatesEv
0000000000070a90 T _ZN8ABYParty14ABYPartyListenEv
000000000006f820 T _ZN8ABYParty15ABYPartyConnectEv
000000000006fbb0 T _ZN8ABYParty15EvaluateCircuitEv
000000000006f9e0 T _ZN8ABYParty15GetReceivedDataE8ABYPHASE
000000000006f840 T _ZN8ABYParty15InstantiateGateEj
000000000006fe00 T _ZN8ABYParty16ThreadSendValuesEj
0000000000070ef0 T _ZN8ABYParty17ConnectAndBaseOTsEv
000000000006fb00 T _ZN8ABYParty17WaitWorkerThreadsEv
0000000000070930 T _ZN8ABYParty18CPartyWorkerThread10ThreadMainEv
0000000000073000 W _ZN8ABYParty18CPartyWorkerThreadD0Ev
0000000000072fd0 W _ZN8ABYParty18CPartyWorkerThreadD1Ev
0000000000072fd0 W _ZN8ABYParty18CPartyWorkerThreadD2Ev
000000000006fb90 T _ZN8ABYParty18PerformInteractionEv
0000000000070d60 T _ZN8ABYParty19EstablishConnectionEv
0000000000070320 T _ZN8ABYParty19ThreadReceiveValuesEv
000000000006fa30 T _ZN8ABYParty19WakeupWorkerThreadsENS_13EPartyJobTypeE
000000000006fd90 T _ZN8ABYParty20ThreadNotifyTaskDoneEi
000000000006f430 T _ZN8ABYParty26PrintPerformanceStatisticsEv
0000000000071460 T _ZN8ABYParty4InitEv
000000000006f8a0 T _ZN8ABYParty5ResetEv
000000000006f000 T _ZN8ABYParty7CleanupEv
000000000006f870 T _ZN8ABYParty8UsedGateEj
000000000006f9a0 T _ZN8ABYParty9GetTimingE8ABYPHASE
00000000000729f0 T _ZN8ABYPartyC1E6e_roleRKSst14SECURITYLEVELSjj12e_mt_gen_algjS2_
00000000000729f0 T _ZN8ABYPartyC2E6e_roleRKSst14SECURITYLEVELSjj12e_mt_gen_algjS2_
000000000006f280 T _ZN8ABYPartyD1Ev
000000000006f280 T _ZN8ABYPartyD2Ev
0000000000076230 T _ZN8ABYSetup11AddSendTaskEPhm
00000000000770f0 T _ZN8ABYSetup13CWorkerThread10ThreadMainEv
0000000000077360 W _ZN8ABYSetup13CWorkerThreadD0Ev
0000000000077330 W _ZN8ABYSetup13CWorkerThreadD1Ev
0000000000077330 W _ZN8ABYSetup13CWorkerThreadD2Ev
0000000000076270 T _ZN8ABYSetup14AddReceiveTaskEPhm
0000000000076ee0 T _ZN8ABYSetup14ThreadRunKKRcvEj
0000000000076fe0 T _ZN8ABYSetup14ThreadRunKKSndEj
0000000000075640 T _ZN8ABYSetup14ThreadRunNPRcvEv
0000000000075620 T _ZN8ABYSetup14ThreadRunNPSndEv
0000000000075e50 T _ZN8ABYSetup14ThreadSendDataEj
0000000000075610 T _ZN8ABYSetup16FinishSetupPhaseEv
0000000000076de0 T _ZN8ABYSetup16ThreadRunIKNPRcvEj
0000000000076cb0 T _ZN8ABYSetup16ThreadRunIKNPSndEj
0000000000076080 T _ZN8ABYSetup17PerformSetupPhaseEv
0000000000076410 T _ZN8ABYSetup17PrepareSetupPhaseEP8comm_ctx
0000000000075e90 T _ZN8ABYSetup17ThreadReceiveDataEv
0000000000075a60 T _ZN8ABYSetup17ThreadRunDGKMTGenEj
0000000000075ff0 T _ZN8ABYSetup17WaitWorkerThreadsEv
0000000000075ec0 T _ZN8ABYSetup19WakeupWorkerThreadsENS_8EJobTypeE
00000000000762a0 T _ZN8ABYSetup20ThreadNotifyTaskDoneEi
0000000000075660 T _ZN8ABYSetup22ThreadRunPaillierMTGenEj
0000000000076260 T _ZN8ABYSetup22WaitForTransmissionEndEv
0000000000076890 T _ZN8ABYSetup4InitEv
0000000000076320 T _ZN8ABYSetup5ResetEv
0000000000075350 T _ZN8ABYSetup7CleanupEv
0000000000076b30 T _ZN8ABYSetupC1EP6cryptoj6e_role12e_mt_gen_alg
0000000000076b30 T _ZN8ABYSetupC2EP6cryptoj6e_role12e_mt_gen_alg
0000000000075530 T _ZN8ABYSetupD1Ev
0000000000075530 T _ZN8ABYSetupD2Ev
0000000000086c00 T _ZN8DGKParty10loadNewKeyEjj
0000000000085ee0 T _ZN8DGKParty11generateKeyEv
0000000000086ab0 T _ZN8DGKParty11keyExchangeEP7channel
0000000000086a30 T _ZN8DGKParty12receivempz_tEP12__mpz_structP7channel
0000000000086960 T _ZN8DGKParty12receivempz_tEP12__mpz_structP7channelPh
0000000000085f50 T _ZN8DGKParty20computeArithmeticMTsEPhS0_S0_S0_S0_S0_jP7channel
0000000000085ec0 T _ZN8DGKParty7readKeyEv
00000000000869b0 T _ZN8DGKParty9sendmpz_tEP12__mpz_structP7channel
00000000000868e0 T _ZN8DGKParty9sendmpz_tEP12__mpz_structP7channelPh
0000000000085f00 T _ZN8DGKPartyC1Ejjj
0000000000086bb0 T _ZN8DGKPartyC1EjjP7channelj
0000000000085f00 T _ZN8DGKPartyC2Ejjj
0000000000086bb0 T _ZN8DGKPartyC2EjjP7channelj
0000000000085f30 T _ZN8DGKPartyD1Ev
0000000000085f30 T _ZN8DGKPartyD2Ev
0000000000087ff0 T _ZN8DJNParty11keyExchangeEP7channel
0000000000087f70 T _ZN8DJNParty12receivempz_tEP12__mpz_structP7channel
0000000000087ea0 T _ZN8DJNParty12receivempz_tEP12__mpz_structP7channelPh
0000000000086c50 T _ZN8DJNParty17setShareBitLengthEj
0000000000087960 T _ZN8DJNParty20benchPreCompPacking1EP7channelPhjjPA1_12__mpz_structS5_S5_S5_S5_PS3_S6_S6_S6_
0000000000086c80 T _ZN8DJNParty20computeArithmeticMTsEPhS0_S0_S0_S0_S0_jP7channel
0000000000086c20 T _ZN8DJNParty6keyGenEv
0000000000087ef0 T _ZN8DJNParty9sendmpz_tEP12__mpz_structP7channel
0000000000087e20 T _ZN8DJNParty9sendmpz_tEP12__mpz_structP7channelPh
0000000000086c30 T _ZN8DJNPartyC1Ejj
00000000000880a0 T _ZN8DJNPartyC1EjjP7channel
0000000000086c30 T _ZN8DJNPartyC2Ejj
00000000000880a0 T _ZN8DJNPartyC2EjjP7channel
0000000000086c60 T _ZN8DJNPartyD1Ev
0000000000086c60 T _ZN8DJNPartyD2Ev
000000000011ccb0 T _ZN8OTExtRec10HashValuesEP10CBitVectorS1_S1_mmPPm
000000000011ca80 T _ZN8OTExtRec11MaskBaseOTsEP10CBitVectorS1_mm
000000000011c930 T _ZN8OTExtRec13BuildMatricesEP10CBitVectorS1_mmP17evp_cipher_ctx_st
000000000011e1d0 T _ZN8OTExtRec13start_receiveEj
000000000011e500 T _ZN8OTExtRec16ComputePKBaseOTsEv
000000000011e940 W _ZN8OTExtRec16OTReceiverThread10ThreadMainEv
000000000011e980 W _ZN8OTExtRec16OTReceiverThreadD0Ev
000000000011e960 W _ZN8OTExtRec16OTReceiverThreadD1Ev
000000000011e960 W _ZN8OTExtRec16OTReceiverThreadD2Ev
000000000011d550 T _ZN8OTExtRec16ReceiveAndUnMaskEP7channelPSt5queueIP10mask_blockSt5dequeIS4_SaIS4_EEE
000000000011d910 T _ZN8OTExtRec25ReceiveAndXORCorRobVectorEP10CBitVectormP7channel
000000000011e4a0 T _ZN8OTExtRec7receiveEmmmP10CBitVectorS1_13snd_ot_flavor13rec_ot_flavorjP15MaskingFunction
000000000011d970 T _ZN8OTExtRec8verifyOTEm
000000000011cc10 T _ZN8OTExtRec9SendMasksEP10CBitVectorP7channelmmm
000000000011e7a0 T _ZN8OTExtRec9SetOutputEP10CBitVectormmPSt5queueIP10mask_blockSt5dequeIS4_SaIS4_EEEP7channel
0000000000077630 W _ZN8OTExtRecD0Ev
0000000000077540 W _ZN8OTExtRecD1Ev
0000000000077540 W _ZN8OTExtRecD2Ev
000000000011ef90 T _ZN8OTExtSnd10HashValuesEP10CBitVectorS1_S1_S1_mmPPm
000000000011ff20 T _ZN8OTExtSnd10start_sendEj
000000000011fae0 T _ZN8OTExtSnd11MaskAndSendEP10CBitVectormmP7channel
000000000011ecd0 T _ZN8OTExtSnd12BuildQMatrixEP10CBitVectormmP17evp_cipher_ctx_st
000000000011ee60 T _ZN8OTExtSnd12ReceiveMasksEP10CBitVectorP7channelmm
000000000011edb0 T _ZN8OTExtSnd13UnMaskBaseOTsEP10CBitVectorS1_S1_m
0000000000120560 W _ZN8OTExtSnd14OTSenderThread10ThreadMainEv
00000000001205a0 W _ZN8OTExtSnd14OTSenderThreadD0Ev
0000000000120580 W _ZN8OTExtSnd14OTSenderThreadD1Ev
0000000000120580 W _ZN8OTExtSnd14OTSenderThreadD2Ev
0000000000120240 T _ZN8OTExtSnd16ComputePKBaseOTsEv
000000000011ef10 T _ZN8OTExtSnd30GenerateSendAndXORCorRobVectorEP10CBitVectormP7channel
00000000001201f0 T _ZN8OTExtSnd4sendEmmmPP10CBitVector13snd_ot_flavor13rec_ot_flavorjP15MaskingFunction
000000000011fc10 T _ZN8OTExtSnd8verifyOTEm
0000000000077520 W _ZN8OTExtSndD0Ev
00000000000773b0 W _ZN8OTExtSndD1Ev
00000000000773b0 W _ZN8OTExtSndD2Ev
00000000000ab3b0 T _ZN8SetupLUT11AssignInputER10CBitVector
00000000000a6860 T _ZN8SetupLUT12InitNewLayerEv
00000000000acbd0 W _ZN8SetupLUT12sharing_typeEv
00000000000ac360 T _ZN8SetupLUT13GetDataToSendERSt6vectorIPhSaIS1_EERS0_ImSaImEE
00000000000acbe0 W _ZN8SetupLUT15InstantiateGateEP4GATE
00000000000a6e60 T _ZN8SetupLUT16EvaluateSIMDGateEj
00000000000a62c0 T _ZN8SetupLUT16FinishSetupPhaseEP8ABYSetup
00000000000a6ad0 T _ZN8SetupLUT17AssignInputSharesEv
00000000000a6290 T _ZN8SetupLUT17PerformSetupPhaseEP8ABYSetup
00000000000a75e0 T _ZN8SetupLUT17PrepareSetupPhaseEP8ABYSetup
00000000000a6c40 T _ZN8SetupLUT18AssignOutputSharesEv
00000000000a6e20 T _ZN8SetupLUT18FinishCircuitLayerEv
00000000000a6a30 T _ZN8SetupLUT18PrepareOnlinePhaseEv
00000000000ac000 T _ZN8SetupLUT19GetBuffersToReceiveERSt6vectorIPhSaIS1_EERS0_ImSaImEE
00000000000acbb0 W _ZN8SetupLUT19PreComputationPhaseEv
00000000000acc10 W _ZN8SetupLUT21SenderEvaluateTTGatesEv
00000000000a62a0 T _ZN8SetupLUT22GetCircuitBuildRoutineEv
00000000000aab20 T _ZN8SetupLUT23EvaluateLocalOperationsEj
00000000000ad310 W _ZN8SetupLUT23ReceiverEvaluateTTGatesEv
00000000000a62b0 T _ZN8SetupLUT25GetMaxCommunicationRoundsEv
00000000000acbc0 W _ZN8SetupLUT25GetNumNonLinearOperationsEv
00000000000a65f0 T _ZN8SetupLUT26PrintPerformanceStatisticsEv
00000000000ab5f0 T _ZN8SetupLUT29EvaluateInteractiveOperationsEj
00000000000a9b30 T _ZN8SetupLUT4InitEv
00000000000a8e60 T _ZN8SetupLUT5ResetEv
00000000000aa920 T _ZN8SetupLUT9GetOutputER10CBitVector
00000000000aa580 T _ZN8SetupLUTC1E9e_sharing6e_rolejP10ABYCircuitP6cryptoRKSs
00000000000aa580 T _ZN8SetupLUTC2E9e_sharing6e_rolejP10ABYCircuitP6cryptoRKSs
00000000000a9b10 T _ZN8SetupLUTD0Ev
00000000000a9680 T _ZN8SetupLUTD1Ev
00000000000a9680 T _ZN8SetupLUTD2Ev
00000000000cdd40 W _ZN8UINTType7getTypeEv
00000000000ba0d0 W _ZN8YaoKeyLT10XOR_QUAD_BEPhS0_S0_
00000000000ba0a0 W _ZN8YaoKeyLT12XOR_DOUBLE_BEPhS0_S0_
00000000000ba080 W _ZN8YaoKeyLT3XOREPhS0_S0_
00000000000ba2e0 W _ZN8YaoKeyLTD0Ev
00000000000ba070 W _ZN8YaoKeyLTD1Ev
00000000000ba070 W _ZN8YaoKeyLTD2Ev
00000000000ba050 W _ZN8YaoKeyMT10XOR_QUAD_BEPhS0_S0_
00000000000ba020 W _ZN8YaoKeyMT12XOR_DOUBLE_BEPhS0_S0_
00000000000ba000 W _ZN8YaoKeyMT3XOREPhS0_S0_
00000000000ba2b0 W _ZN8YaoKeyMTD0Ev
00000000000b9ff0 W _ZN8YaoKeyMTD1Ev
00000000000b9ff0 W _ZN8YaoKeyMTD2Ev
00000000000b9fd0 W _ZN8YaoKeyST10XOR_QUAD_BEPhS0_S0_
00000000000b9fa0 W _ZN8YaoKeyST12XOR_DOUBLE_BEPhS0_S0_
00000000000b9f80 W _ZN8YaoKeyST3XOREPhS0_S0_
00000000000ba2a0 W _ZN8YaoKeySTD0Ev
00000000000b9f70 W _ZN8YaoKeySTD1Ev
00000000000b9f70 W _ZN8YaoKeySTD2Ev
0000000000084d60 T _ZN9boolshare19get_clear_value_ptrEv
0000000000084e60 T _ZN9boolshare19get_clear_value_vecEPPjS0_S0_
0000000000084f90 T _ZN9boolshare19get_clear_value_vecEPPmPjS2_
0000000000085790 T _ZN9boolshare21get_internal_yao_keysEv
0000000000085c00 T _ZN9boolshare22get_share_from_wire_idEj
00000000000cf4e0 W _ZN9boolshareC1ESt6vectorIjSaIjEEP7Circuit
00000000000cf4e0 W _ZN9boolshareC2ESt6vectorIjSaIjEEP7Circuit
0000000000085d60 W _ZN9boolshareD0Ev
0000000000085d00 W _ZN9boolshareD1Ev
0000000000085d00 W _ZN9boolshareD2Ev
00000000000d9310 T _ZN9ecc_field10get_rnd_feEv
00000000000d9070 T _ZN9ecc_field11get_contextEv
00000000000d9910 T _ZN9ecc_field11get_rnd_numEj
00000000000d91f0 T _ZN9ecc_field13get_generatorEv
00000000000d89b0 T _ZN9ecc_field13num_byte_sizeEv
00000000000d89c0 T _ZN9ecc_field14get_field_sizeEv
00000000000d9310 T _ZN9ecc_field17get_rnd_generatorEv
00000000000d9280 T _ZN9ecc_field19sample_random_pointEv
00000000000d9320 T _ZN9ecc_field4initE14SECURITYLEVELSPh
00000000000d9120 T _ZN9ecc_field6get_feEv
00000000000d9780 T _ZN9ecc_field7get_numEv
00000000000d89c0 T _ZN9ecc_field8get_sizeEv
00000000000da060 T _ZN9ecc_field9get_brickEP2fe
00000000000d9870 T _ZN9ecc_field9get_orderEv
00000000000d9050 T _ZN9ecc_fieldD0Ev
00000000000d8f60 T _ZN9ecc_fieldD1Ev
00000000000d8f60 T _ZN9ecc_fieldD2Ev
00000000000cf2b0 W _ZN9__gnu_cxx12__to_xstringISscEET_PFiPT0_mPKS2_P13__va_list_tagEmS5_z
0000000000101c30 W _ZN9__gnu_cxx13stdio_filebufIcSt11char_traitsIcEEC1EiSt13_Ios_Openmodem
0000000000101c30 W _ZN9__gnu_cxx13stdio_filebufIcSt11char_traitsIcEEC2EiSt13_Ios_Openmodem
0000000000100630 W _ZN9__gnu_cxx13stdio_filebufIcSt11char_traitsIcEED0Ev
00000000001005f0 W _ZN9__gnu_cxx13stdio_filebufIcSt11char_traitsIcEED1Ev
00000000001005f0 W _ZN9__gnu_cxx13stdio_filebufIcSt11char_traitsIcEED2Ev
00000000000dcc10 T _ZN9RcvThread10ThreadMainEv
00000000000dc9c0 T _ZN9RcvThread11flush_queueEh
00000000000dd070 T _ZN9RcvThread12add_listenerEhP6CEventS1_
00000000000dcba0 T _ZN9RcvThread15remove_listenerEh
00000000000dd1c0 T _ZN9RcvThread18get_listener_mutexEh
00000000000dc9b0 T _ZN9RcvThread7setlockEP5CLock
00000000000dc840 T _ZN9RcvThreadC1EP7CSocketP5CLock
00000000000dc840 T _ZN9RcvThreadC2EP7CSocketP5CLock
00000000000dcb80 T _ZN9RcvThreadD0Ev
00000000000dcae0 T _ZN9RcvThreadD1Ev
00000000000dcae0 T _ZN9RcvThreadD2Ev
00000000000ddc40 T _ZN9SndThread10signal_endEh
00000000000dd1e0 T _ZN9SndThread10ThreadMainEv
00000000000ddc20 T _ZN9SndThread12add_snd_taskEhmPh
00000000000ddb50 T _ZN9SndThread18add_event_snd_taskEP6CEventhmPh
00000000000ddb20 T _ZN9SndThread22add_snd_task_start_lenEhmPhmm
00000000000dda30 T _ZN9SndThread28add_event_snd_task_start_lenEP6CEventhmPhmm
00000000000dd820 T _ZN9SndThread4stopEv
00000000000dd520 T _ZN9SndThread7setlockEP5CLock
00000000000dd760 T _ZN9SndThread9kill_taskEv
00000000000dd530 T _ZN9SndThread9push_taskESt10unique_ptrINS_8snd_taskESt14default_deleteIS1_EE
00000000000dd3e0 T _ZN9SndThreadC1EP7CSocketP5CLock
00000000000dd3e0 T _ZN9SndThreadC2EP7CSocketP5CLock
00000000000dda10 T _ZN9SndThreadD0Ev
00000000000dd830 T _ZN9SndThreadD1Ev
00000000000dd830 T _ZN9SndThreadD2Ev
00000000000ba180 W _ZN9YaoKeyXLT10XOR_QUAD_BEPhS0_S0_
00000000000ba130 W _ZN9YaoKeyXLT12XOR_DOUBLE_BEPhS0_S0_
00000000000ba100 W _ZN9YaoKeyXLT3XOREPhS0_S0_
00000000000ba2c0 W _ZN9YaoKeyXLTD0Ev
00000000000ba0f0 W _ZN9YaoKeyXLTD1Ev
00000000000ba0f0 W _ZN9YaoKeyXLTD2Ev
                 U _Znam
00000000000d1ce0 T _ZNK10CBitVector12GetBitNoMaskEm
00000000000d1b80 T _ZNK10CBitVector16GetElementLengthEv
00000000000d3230 T _ZNK10CBitVector6GetArrEv
00000000000d1c00 T _ZNK10CBitVector6GetBitEm
00000000000d2020 T _ZNK10CBitVector7GetBitsEPhmm
00000000000d1d70 T _ZNK10CBitVector7GetByteEm
00000000000d1b60 T _ZNK10CBitVector7GetSizeEv
00000000000d3240 T _ZNK10CBitVector7IsEqualERKS_
00000000000d1c20 T _ZNK10CBitVector7IsEqualERKS_mm
00000000000d1da0 T _ZNK10CBitVector8GetBytesEPhmm
00000000000e47e0 W _ZNK5boost10wrapexceptINS_4asio21invalid_service_ownerEE5cloneEv
00000000000e34f0 W _ZNK5boost10wrapexceptINS_4asio21invalid_service_ownerEE7rethrowEv
00000000000e46b0 W _ZNK5boost10wrapexceptINS_4asio22service_already_existsEE5cloneEv
00000000000e33e0 W _ZNK5boost10wrapexceptINS_4asio22service_already_existsEE7rethrowEv
00000000000e45b0 W _ZNK5boost10wrapexceptINS_4asio2ip16bad_address_castEE5cloneEv
00000000000e2ba0 W _ZNK5boost10wrapexceptINS_4asio2ip16bad_address_castEE7rethrowEv
00000000000e4a60 W _ZNK5boost10wrapexceptINS_4asio9execution12bad_executorEE5cloneEv
00000000000e22d0 W _ZNK5boost10wrapexceptINS_4asio9execution12bad_executorEE7rethrowEv
00000000000e4910 W _ZNK5boost10wrapexceptINS_6system12system_errorEE5cloneEv
00000000000e3260 W _ZNK5boost10wrapexceptINS_6system12system_errorEE7rethrowEv
00000000000eb520 W _ZNK5boost4asio10io_context19basic_executor_typeISaIvELj0EE7executeINS0_6detail17executor_functionEEEvOT_
00000000000eb800 W _ZNK5boost4asio10io_context19basic_executor_typeISaIvELj4EE7executeINS0_6detail17executor_functionEEEvOT_
00000000000e15b0 W _ZNK5boost4asio19multiple_exceptions4whatEv
00000000000e17d0 W _ZNK5boost4asio2ip16bad_address_cast4whatEv
00000000000e1770 W _ZNK5boost4asio5error6detail13misc_category4nameEv
00000000000e6610 W _ZNK5boost4asio5error6detail13misc_category7messageEi
00000000000e1750 W _ZNK5boost4asio5error6detail14netdb_category4nameEv
00000000000e6740 W _ZNK5boost4asio5error6detail14netdb_category7messageEi
00000000000e1760 W _ZNK5boost4asio5error6detail17addrinfo_category4nameEv
00000000000e66d0 W _ZNK5boost4asio5error6detail17addrinfo_category7messageEi
00000000000e15c0 W _ZNK5boost4asio9execution12bad_executor4whatEv
00000000000ea440 W _ZNK5boost6system12system_error4whatEv
00000000000e1670 W _ZNK5boost6system14error_category10equivalentEiRKNS0_15error_conditionE
00000000000e16b0 W _ZNK5boost6system14error_category10equivalentERKNS0_10error_codeEi
00000000000e1660 W _ZNK5boost6system14error_category23default_error_conditionEi
00000000000e1630 W _ZNK5boost6system14error_category6failedEi
00000000000e2ee0 W _ZNK5boost6system14error_category7messageEiPcm
00000000000e9fb0 W _ZNK5boost6system6detail12std_category10equivalentEiRKSt15error_condition
00000000000e9d50 W _ZNK5boost6system6detail12std_category10equivalentERKSt10error_codei
00000000000e9f90 W _ZNK5boost6system6detail12std_category23default_error_conditionEi
00000000000e16e0 W _ZNK5boost6system6detail12std_category4nameEv
00000000000e16f0 W _ZNK5boost6system6detail12std_category7messageEi
00000000000e1710 W _ZNK5boost6system6detail21system_error_category23default_error_conditionEi
00000000000e1650 W _ZNK5boost6system6detail21system_error_category4nameEv
00000000000e6800 W _ZNK5boost6system6detail21system_error_category7messageEi
00000000000e23d0 W _ZNK5boost6system6detail21system_error_category7messageEiPcm
00000000000e1640 W _ZNK5boost6system6detail22generic_error_category4nameEv
00000000000e6840 W _ZNK5boost6system6detail22generic_error_category7messageEi
00000000000e23e0 W _ZNK5boost6system6detail22generic_error_category7messageEiPcm
00000000000ebd00 T _ZNK6CEvent5IsSetEv
00000000000d44e0 T _ZNK7channel11queue_emptyEv
00000000000dec20 T _ZNK7CSocket5GetIPEv
00000000000deb20 T _ZNK7CSocket7GetPortEv
00000000000de1a0 T _ZNK7CSocket9getRcvCntEv
00000000000de150 T _ZNK7CSocket9getSndCntEv
00000000000ebb10 T _ZNK7CThread9IsRunningEv
000000000006f680 T _ZNK8ABYParty9bench_aesEv
00000000000dc9a0 T _ZNK9RcvThread7getlockEv
00000000000dd510 T _ZNK9SndThread7getlockEv
00000000000dbda0 W _ZNKSs13find_first_ofEPKcmm
00000000000fa7e0 W _ZNKSt10filesystem16filesystem_error4whatEv
0000000000116710 T _ZNKSt10filesystem18directory_iteratordeEv
00000000001144a0 T _ZNKSt10filesystem28recursive_directory_iterator5depthEv
00000000001144f0 T _ZNKSt10filesystem28recursive_directory_iteratordeEv
00000000000fca20 T _ZNKSt10filesystem4path11parent_pathEv
00000000000fae30 T _ZNKSt10filesystem4path12has_filenameEv
00000000000facd0 T _ZNKSt10filesystem4path13has_root_nameEv
00000000000fad30 T _ZNKSt10filesystem4path13has_root_pathEv
00000000000fcbb0 T _ZNKSt10filesystem4path13relative_pathEv
00000000000fb190 T _ZNKSt10filesystem4path14root_directoryEv
00000000000fade0 T _ZNKSt10filesystem4path15has_parent_pathEv
00000000000fe300 T _ZNKSt10filesystem4path16lexically_normalEv
00000000000fad60 T _ZNKSt10filesystem4path17has_relative_pathEv
00000000000fae90 T _ZNKSt10filesystem4path17_M_find_extensionEv
00000000000facf0 T _ZNKSt10filesystem4path18has_root_directoryEv
00000000000fd4e0 T _ZNKSt10filesystem4path18lexically_relativeERKS0_
00000000000fe0a0 T _ZNKSt10filesystem4path19lexically_proximateERKS0_
00000000000faa40 T _ZNKSt10filesystem4path7compareERKS0_
00000000000fb0e0 T _ZNKSt10filesystem4path9root_nameEv
00000000000fe120 T _ZNKSt10filesystem4path9root_pathEv
000000000010e580 W _ZNKSt10filesystem7__cxx1116filesystem_error4whatEv
0000000000118700 T _ZNKSt10filesystem7__cxx1118directory_iteratordeEv
0000000000117f20 T _ZNKSt10filesystem7__cxx1128recursive_directory_iterator5depthEv
0000000000117f70 T _ZNKSt10filesystem7__cxx1128recursive_directory_iteratordeEv
0000000000111050 T _ZNKSt10filesystem7__cxx114path11parent_pathEv
000000000010eaf0 T _ZNKSt10filesystem7__cxx114path12has_filenameEv
000000000010e990 T _ZNKSt10filesystem7__cxx114path13has_root_nameEv
000000000010ea00 T _ZNKSt10filesystem7__cxx114path13has_root_pathEv
0000000000110c90 T _ZNKSt10filesystem7__cxx114path13relative_pathEv
00000000001109c0 T _ZNKSt10filesystem7__cxx114path14root_directoryEv
000000000010eaa0 T _ZNKSt10filesystem7__cxx114path15has_parent_pathEv
0000000000111f30 T _ZNKSt10filesystem7__cxx114path16lexically_normalEv
000000000010ea30 T _ZNKSt10filesystem7__cxx114path17has_relative_pathEv
000000000010eb50 T _ZNKSt10filesystem7__cxx114path17_M_find_extensionEv
000000000010e9b0 T _ZNKSt10filesystem7__cxx114path18has_root_directoryEv
00000000001112e0 T _ZNKSt10filesystem7__cxx114path18lexically_relativeERKS1_
0000000000111eb0 T _ZNKSt10filesystem7__cxx114path19lexically_proximateERKS1_
000000000010e6f0 T _ZNKSt10filesystem7__cxx114path7compareERKS1_
0000000000110900 T _ZNKSt10filesystem7__cxx114path9root_nameEv
0000000000110aa0 T _ZNKSt10filesystem7__cxx114path9root_pathEv
                 U _ZNKSt11logic_error4whatEv
                 U _ZNKSt12__basic_fileIcE7is_openEv
                 U _ZNKSt13runtime_error4whatEv
00000000000974e0 W _ZNKSt15_Deque_iteratorIjRjPjEplEl
000000000013b830 T _ZNKSt19__codecvt_utf8_baseIDiE10do_unshiftER11__mbstate_tPcS3_RS3_
000000000013b840 T _ZNKSt19__codecvt_utf8_baseIDiE11do_encodingEv
000000000013b890 T _ZNKSt19__codecvt_utf8_baseIDiE13do_max_lengthEv
000000000013b850 T _ZNKSt19__codecvt_utf8_baseIDiE16do_always_noconvEv
000000000013d690 T _ZNKSt19__codecvt_utf8_baseIDiE5do_inER11__mbstate_tPKcS4_RS4_PDiS6_RS6_
000000000013d8d0 T _ZNKSt19__codecvt_utf8_baseIDiE6do_outER11__mbstate_tPKDiS4_RS4_PcS6_RS6_
000000000013d530 T _ZNKSt19__codecvt_utf8_baseIDiE9do_lengthER11__mbstate_tPKcS4_m
000000000013b830 T _ZNKSt19__codecvt_utf8_baseIDsE10do_unshiftER11__mbstate_tPcS3_RS3_
000000000013b840 T _ZNKSt19__codecvt_utf8_baseIDsE11do_encodingEv
000000000013b870 T _ZNKSt19__codecvt_utf8_baseIDsE13do_max_lengthEv
000000000013b850 T _ZNKSt19__codecvt_utf8_baseIDsE16do_always_noconvEv
000000000013d3d0 T _ZNKSt19__codecvt_utf8_baseIDsE5do_inER11__mbstate_tPKcS4_RS4_PDsS6_RS6_
000000000013c100 T _ZNKSt19__codecvt_utf8_baseIDsE6do_outER11__mbstate_tPKDsS4_RS4_PcS6_RS6_
000000000013cf50 T _ZNKSt19__codecvt_utf8_baseIDsE9do_lengthER11__mbstate_tPKcS4_m
000000000013b830 T _ZNKSt19__codecvt_utf8_baseIwE10do_unshiftER11__mbstate_tPcS3_RS3_
000000000013b840 T _ZNKSt19__codecvt_utf8_baseIwE11do_encodingEv
000000000013b8b0 T _ZNKSt19__codecvt_utf8_baseIwE13do_max_lengthEv
000000000013b850 T _ZNKSt19__codecvt_utf8_baseIwE16do_always_noconvEv
000000000013d710 T _ZNKSt19__codecvt_utf8_baseIwE5do_inER11__mbstate_tPKcS4_RS4_PwS6_RS6_
000000000013c290 T _ZNKSt19__codecvt_utf8_baseIwE6do_outER11__mbstate_tPKwS4_RS4_PcS6_RS6_
000000000013d550 T _ZNKSt19__codecvt_utf8_baseIwE9do_lengthER11__mbstate_tPKcS4_m
000000000013f6e0 T _ZNKSt20bad_array_new_length4whatEv
000000000013b830 T _ZNKSt20__codecvt_utf16_baseIDiE10do_unshiftER11__mbstate_tPcS3_RS3_
000000000013b840 T _ZNKSt20__codecvt_utf16_baseIDiE11do_encodingEv
000000000013b8f0 T _ZNKSt20__codecvt_utf16_baseIDiE13do_max_lengthEv
000000000013b850 T _ZNKSt20__codecvt_utf16_baseIDiE16do_always_noconvEv
000000000013c490 T _ZNKSt20__codecvt_utf16_baseIDiE5do_inER11__mbstate_tPKcS4_RS4_PDiS6_RS6_
000000000013d790 T _ZNKSt20__codecvt_utf16_baseIDiE6do_outER11__mbstate_tPKDiS4_RS4_PcS6_RS6_
000000000013d960 T _ZNKSt20__codecvt_utf16_baseIDiE9do_lengthER11__mbstate_tPKcS4_m
000000000013b830 T _ZNKSt20__codecvt_utf16_baseIDsE10do_unshiftER11__mbstate_tPcS3_RS3_
000000000013b840 T _ZNKSt20__codecvt_utf16_baseIDsE11do_encodingEv
000000000013b8d0 T _ZNKSt20__codecvt_utf16_baseIDsE13do_max_lengthEv
000000000013b850 T _ZNKSt20__codecvt_utf16_baseIDsE16do_always_noconvEv
000000000013c660 T _ZNKSt20__codecvt_utf16_baseIDsE5do_inER11__mbstate_tPKcS4_RS4_PDsS6_RS6_
000000000013beb0 T _ZNKSt20__codecvt_utf16_baseIDsE6do_outER11__mbstate_tPKDsS4_RS4_PcS6_RS6_
000000000013c790 T _ZNKSt20__codecvt_utf16_baseIDsE9do_lengthER11__mbstate_tPKcS4_m
000000000013b830 T _ZNKSt20__codecvt_utf16_baseIwE10do_unshiftER11__mbstate_tPcS3_RS3_
000000000013b840 T _ZNKSt20__codecvt_utf16_baseIwE11do_encodingEv
000000000013b910 T _ZNKSt20__codecvt_utf16_baseIwE13do_max_lengthEv
000000000013b850 T _ZNKSt20__codecvt_utf16_baseIwE16do_always_noconvEv
000000000013c520 T _ZNKSt20__codecvt_utf16_baseIwE5do_inER11__mbstate_tPKcS4_RS4_PwS6_RS6_
000000000013c940 T _ZNKSt20__codecvt_utf16_baseIwE6do_outER11__mbstate_tPKwS4_RS4_PcS6_RS6_
000000000013c5b0 T _ZNKSt20__codecvt_utf16_baseIwE9do_lengthER11__mbstate_tPKcS4_m
00000000000fa7f0 W _ZNKSt23__codecvt_abstract_baseIwc11__mbstate_tE2inERS0_PKcS4_RS4_PwS6_RS6_
00000000000fa800 W _ZNKSt23__codecvt_abstract_baseIwc11__mbstate_tE3outERS0_PKwS4_RS4_PcS6_RS6_
000000000013b830 T _ZNKSt25__codecvt_utf8_utf16_baseIDiE10do_unshiftER11__mbstate_tPcS3_RS3_
000000000013b840 T _ZNKSt25__codecvt_utf8_utf16_baseIDiE11do_encodingEv
000000000013b950 T _ZNKSt25__codecvt_utf8_utf16_baseIDiE13do_max_lengthEv
000000000013b850 T _ZNKSt25__codecvt_utf8_utf16_baseIDiE16do_always_noconvEv
000000000013cc90 T _ZNKSt25__codecvt_utf8_utf16_baseIDiE5do_inER11__mbstate_tPKcS4_RS4_PDiS6_RS6_
000000000013cb10 T _ZNKSt25__codecvt_utf8_utf16_baseIDiE6do_outER11__mbstate_tPKDiS4_RS4_PcS6_RS6_
000000000013d130 T _ZNKSt25__codecvt_utf8_utf16_baseIDiE9do_lengthER11__mbstate_tPKcS4_m
000000000013b830 T _ZNKSt25__codecvt_utf8_utf16_baseIDsE10do_unshiftER11__mbstate_tPcS3_RS3_
000000000013b840 T _ZNKSt25__codecvt_utf8_utf16_baseIDsE11do_encodingEv
000000000013b930 T _ZNKSt25__codecvt_utf8_utf16_baseIDsE13do_max_lengthEv
000000000013b850 T _ZNKSt25__codecvt_utf8_utf16_baseIDsE16do_always_noconvEv
000000000013d350 T _ZNKSt25__codecvt_utf8_utf16_baseIDsE5do_inER11__mbstate_tPKcS4_RS4_PDsS6_RS6_
000000000013d830 T _ZNKSt25__codecvt_utf8_utf16_baseIDsE6do_outER11__mbstate_tPKDsS4_RS4_PcS6_RS6_
000000000013d110 T _ZNKSt25__codecvt_utf8_utf16_baseIDsE9do_lengthER11__mbstate_tPKcS4_m
000000000013b830 T _ZNKSt25__codecvt_utf8_utf16_baseIwE10do_unshiftER11__mbstate_tPcS3_RS3_
000000000013b840 T _ZNKSt25__codecvt_utf8_utf16_baseIwE11do_encodingEv
000000000013b970 T _ZNKSt25__codecvt_utf8_utf16_baseIwE13do_max_lengthEv
000000000013b850 T _ZNKSt25__codecvt_utf8_utf16_baseIwE16do_always_noconvEv
000000000013cdf0 T _ZNKSt25__codecvt_utf8_utf16_baseIwE5do_inER11__mbstate_tPKcS4_RS4_PwS6_RS6_
000000000013c9e0 T _ZNKSt25__codecvt_utf8_utf16_baseIwE6do_outER11__mbstate_tPKwS4_RS4_PcS6_RS6_
000000000013d150 T _ZNKSt25__codecvt_utf8_utf16_baseIwE9do_lengthER11__mbstate_tPKcS4_m
000000000013b400 T _ZNKSt3_V214error_category10equivalentEiRKSt15error_condition
000000000013b430 T _ZNKSt3_V214error_category10equivalentERKSt10error_codei
000000000013b450 T _ZNKSt3_V214error_category10_M_messageB5cxx11Ei
000000000013de20 T _ZNKSt3_V214error_category10_M_messageEi
000000000013b3f0 T _ZNKSt3_V214error_category23default_error_conditionEi
                 U _ZNKSt5ctypeIcE13_M_widen_initEv
000000000006e190 W _ZNKSt5ctypeIcE8do_widenEc
00000000000d1310 W _ZNKSt6vectorIjSaIjEE12_M_check_lenEmPKc
000000000013b830 T _ZNKSt7codecvtIDic11__mbstate_tE10do_unshiftERS0_PcS3_RS3_
000000000013b840 T _ZNKSt7codecvtIDic11__mbstate_tE11do_encodingEv
000000000013b860 T _ZNKSt7codecvtIDic11__mbstate_tE13do_max_lengthEv
000000000013b850 T _ZNKSt7codecvtIDic11__mbstate_tE16do_always_noconvEv
000000000013d610 T _ZNKSt7codecvtIDic11__mbstate_tE5do_inERS0_PKcS4_RS4_PDiS6_RS6_
000000000013c320 T _ZNKSt7codecvtIDic11__mbstate_tE6do_outERS0_PKDiS4_RS4_PcS6_RS6_
000000000013d510 T _ZNKSt7codecvtIDic11__mbstate_tE9do_lengthERS0_PKcS4_m
000000000013b830 T _ZNKSt7codecvtIDsc11__mbstate_tE10do_unshiftERS0_PcS3_RS3_
000000000013b840 T _ZNKSt7codecvtIDsc11__mbstate_tE11do_encodingEv
000000000013b860 T _ZNKSt7codecvtIDsc11__mbstate_tE13do_max_lengthEv
000000000013b850 T _ZNKSt7codecvtIDsc11__mbstate_tE16do_always_noconvEv
000000000013d2d0 T _ZNKSt7codecvtIDsc11__mbstate_tE5do_inERS0_PKcS4_RS4_PDsS6_RS6_
000000000013c1b0 T _ZNKSt7codecvtIDsc11__mbstate_tE6do_outERS0_PKDsS4_RS4_PcS6_RS6_
000000000013d0f0 T _ZNKSt7codecvtIDsc11__mbstate_tE9do_lengthERS0_PKcS4_m
00000000000ff7e0 W _ZNSbIwSt11char_traitsIwESaIwEE12_M_leak_hardEv
00000000000ff840 W _ZNSbIwSt11char_traitsIwESaIwEE19_M_replace_dispatchIPKcEERS2_N9__gnu_cxx17__normal_iteratorIPwS2_EESA_T_SB_St12__false_type
                 U _ZNSbIwSt11char_traitsIwESaIwEE4_Rep20_S_empty_rep_storageE
00000000000ff520 W _ZNSbIwSt11char_traitsIwESaIwEE4_Rep9_S_createEmmRKS1_
00000000000ffb70 W _ZNSbIwSt11char_traitsIwESaIwEE6appendEmw
00000000000ffc30 W _ZNSbIwSt11char_traitsIwESaIwEE6resizeEmw
00000000000ffa40 W _ZNSbIwSt11char_traitsIwESaIwEE7reserveEm
00000000000ff5c0 W _ZNSbIwSt11char_traitsIwESaIwEE9_M_mutateEmmm
                 U _ZNSo3putEc
                 U _ZNSo5flushEv
                 U _ZNSo9_M_insertIdEERSoT_
                 U _ZNSo9_M_insertImEERSoT_
                 U _ZNSo9_M_insertIPKvEERSoT_
                 U _ZNSolsEi
                 U _ZNSolsEPSt15basic_streambufIcSt11char_traitsIcEE
00000000000fb390 W _ZNSs12_M_leak_hardEv
00000000000ff240 W _ZNSs15_M_replace_safeEmmPKcm
                 U _ZNSs4_Rep10_M_destroyERKSaIcE
                 U _ZNSs4_Rep20_S_empty_rep_storageE
00000000000d1230 W _ZNSs4_Rep8_M_cloneERKSaIcEm
00000000000eec10 W _ZNSs4_Rep9_S_createEmmRKSaIcE
00000000000ee370 W _ZNSs4swapERSs
00000000000d1140 W _ZNSs6appendEPKcm
00000000000d10a0 W _ZNSs6appendERKSs
00000000000dbf60 W _ZNSs6assignEPKcm
00000000000eee50 W _ZNSs6assignERKSs
00000000000f0050 W _ZNSs6insertEmPKcm
00000000000f2660 W _ZNSs6resizeEmc
00000000000ea5e0 W _ZNSs7replaceEmmPKcm
00000000000d0f60 W _ZNSs7reserveEm
00000000000ea270 W _ZNSs9_M_mutateEmmm
                 U _ZNSsC1EPKcmRKSaIcE
000000000006e1b0 W _ZNSsC1EPKcRKSaIcE
                 U _ZNSsC1ERKSs
00000000000fb2e0 W _ZNSsC1ERKSsmm
000000000006e1b0 W _ZNSsC2EPKcRKSaIcE
00000000000fb2e0 W _ZNSsC2ERKSsmm
00000000000f1460 T _ZNSt10filesystem10equivalentERKNS_4pathES2_
00000000000ed4b0 T _ZNSt10filesystem10equivalentERKNS_4pathES2_RSt10error_code
00000000001061b0 T _ZNSt10filesystem10equivalentERKNS_7__cxx114pathES3_
0000000000100970 T _ZNSt10filesystem10equivalentERKNS_7__cxx114pathES3_RSt10error_code
00000000000fb010 T _ZNSt10filesystem10hash_valueERKNS_4pathE
00000000000f2230 T _ZNSt10filesystem10remove_allERKNS_4pathE
00000000000ee8e0 T _ZNSt10filesystem10remove_allERKNS_4pathERSt10error_code
0000000000107000 T _ZNSt10filesystem10remove_allERKNS_7__cxx114pathE
0000000000102530 T _ZNSt10filesystem10remove_allERKNS_7__cxx114pathERSt10error_code
00000000000f2080 T _ZNSt10filesystem11permissionsERKNS_4pathENS_5permsENS_12perm_optionsE
00000000000ee230 T _ZNSt10filesystem11permissionsERKNS_4pathENS_5permsENS_12perm_optionsERSt10error_code
0000000000106da0 T _ZNSt10filesystem11permissionsERKNS_7__cxx114pathENS_5permsENS_12perm_optionsE
00000000001016f0 T _ZNSt10filesystem11permissionsERKNS_7__cxx114pathENS_5permsENS_12perm_optionsERSt10error_code
00000000000f2300 T _ZNSt10filesystem11resize_fileERKNS_4pathEm
00000000000edc20 T _ZNSt10filesystem11resize_fileERKNS_4pathEmRSt10error_code
00000000001070c0 T _ZNSt10filesystem11resize_fileERKNS_7__cxx114pathEm
00000000001010e0 T _ZNSt10filesystem11resize_fileERKNS_7__cxx114pathEmRSt10error_code
00000000000f37b0 T _ZNSt10filesystem12copy_symlinkERKNS_4pathES2_
00000000000f2c30 T _ZNSt10filesystem12copy_symlinkERKNS_4pathES2_RSt10error_code
0000000000105e70 T _ZNSt10filesystem12copy_symlinkERKNS_7__cxx114pathES3_
0000000000103170 T _ZNSt10filesystem12copy_symlinkERKNS_7__cxx114pathES3_RSt10error_code
00000000001034e0 T _ZNSt10filesystem12current_pathB5cxx11ERSt10error_code
0000000000103e70 T _ZNSt10filesystem12current_pathB5cxx11Ev
00000000000f0530 T _ZNSt10filesystem12current_pathERKNS_4pathE
00000000000ed470 T _ZNSt10filesystem12current_pathERKNS_4pathERSt10error_code
0000000000103f40 T _ZNSt10filesystem12current_pathERKNS_7__cxx114pathE
0000000000100930 T _ZNSt10filesystem12current_pathERKNS_7__cxx114pathERSt10error_code
00000000000ef980 T _ZNSt10filesystem12current_pathERSt10error_code
00000000000f06d0 T _ZNSt10filesystem12current_pathEv
0000000000101cf0 T _ZNSt10filesystem12do_copy_fileEPKcS1_NS_26copy_options_existing_fileEP4statS4_RSt10error_code
00000000000f3890 T _ZNSt10filesystem12read_symlinkERKNS_4pathE
00000000000f2760 T _ZNSt10filesystem12read_symlinkERKNS_4pathERSt10error_code
0000000000106e70 T _ZNSt10filesystem12read_symlinkERKNS_7__cxx114pathE
0000000000102cf0 T _ZNSt10filesystem12read_symlinkERKNS_7__cxx114pathERSt10error_code
000000000010ee70 T _ZNSt10filesystem13fs_err_concatERKNSt7__cxx1112basic_stringIcSt11char_traitsIcESaIcEEES7_S7_
00000000000ff2b0 T _ZNSt10filesystem13fs_err_concatERKSsS1_S1_
00000000000f1380 T _ZNSt10filesystem14create_symlinkERKNS_4pathES2_
00000000000ed420 T _ZNSt10filesystem14create_symlinkERKNS_4pathES2_RSt10error_code
00000000001060e0 T _ZNSt10filesystem14create_symlinkERKNS_7__cxx114pathES3_
00000000001008e0 T _ZNSt10filesystem14create_symlinkERKNS_7__cxx114pathES3_RSt10error_code
00000000000f2590 T _ZNSt10filesystem14symlink_statusERKNS_4pathE
00000000000ee0f0 T _ZNSt10filesystem14symlink_statusERKNS_4pathERSt10error_code
0000000000107320 T _ZNSt10filesystem14symlink_statusERKNS_7__cxx114pathE
00000000001015b0 T _ZNSt10filesystem14symlink_statusERKNS_7__cxx114pathERSt10error_code
00000000000f1d30 T _ZNSt10filesystem15hard_link_countERKNS_4pathE
00000000000ed940 T _ZNSt10filesystem15hard_link_countERKNS_4pathERSt10error_code
0000000000106a90 T _ZNSt10filesystem15hard_link_countERKNS_7__cxx114pathE
0000000000100e00 T _ZNSt10filesystem15hard_link_countERKNS_7__cxx114pathERSt10error_code
00000000000f1ed0 T _ZNSt10filesystem15last_write_timeERKNS_4pathE
00000000000f1fa0 T _ZNSt10filesystem15last_write_timeERKNS_4pathENSt6chrono10time_pointINS3_3_V212system_clockENS3_8durationIlSt5ratioILl1ELl1000000000EEEEEE
00000000000edaa0 T _ZNSt10filesystem15last_write_timeERKNS_4pathENSt6chrono10time_pointINS3_3_V212system_clockENS3_8durationIlSt5ratioILl1ELl1000000000EEEEEERSt10error_code
00000000000ed9d0 T _ZNSt10filesystem15last_write_timeERKNS_4pathERSt10error_code
0000000000106c10 T _ZNSt10filesystem15last_write_timeERKNS_7__cxx114pathE
0000000000106cd0 T _ZNSt10filesystem15last_write_timeERKNS_7__cxx114pathENSt6chrono10time_pointINS4_3_V212system_clockENS4_8durationIlSt5ratioILl1ELl1000000000EEEEEE
0000000000100f60 T _ZNSt10filesystem15last_write_timeERKNS_7__cxx114pathENSt6chrono10time_pointINS4_3_V212system_clockENS4_8durationIlSt5ratioILl1ELl1000000000EEEEEERSt10error_code
0000000000100e90 T _ZNSt10filesystem15last_write_timeERKNS_7__cxx114pathERSt10error_code
00000000000f1ab0 T _ZNSt10filesystem16create_directoryERKNS_4pathE
00000000000edf70 T _ZNSt10filesystem16create_directoryERKNS_4pathERSt10error_code
00000000000f1b80 T _ZNSt10filesystem16create_directoryERKNS_4pathES2_
00000000000edec0 T _ZNSt10filesystem16create_directoryERKNS_4pathES2_RSt10error_code
0000000000106840 T _ZNSt10filesystem16create_directoryERKNS_7__cxx114pathE
0000000000101430 T _ZNSt10filesystem16create_directoryERKNS_7__cxx114pathERSt10error_code
0000000000106900 T _ZNSt10filesystem16create_directoryERKNS_7__cxx114pathES3_
0000000000101380 T _ZNSt10filesystem16create_directoryERKNS_7__cxx114pathES3_RSt10error_code
00000000000f12a0 T _ZNSt10filesystem16create_hard_linkERKNS_4pathES2_
00000000000ed3e0 T _ZNSt10filesystem16create_hard_linkERKNS_4pathES2_RSt10error_code
0000000000106010 T _ZNSt10filesystem16create_hard_linkERKNS_7__cxx114pathES3_
00000000001008a0 T _ZNSt10filesystem16create_hard_linkERKNS_7__cxx114pathES3_RSt10error_code
00000000000ff460 T _ZNSt10filesystem16filesystem_error11_M_gen_whatEv
00000000000f0aa0 W _ZNSt10filesystem16filesystem_errorC1ERKSsRKNS_4pathES5_St10error_code
00000000000f1620 W _ZNSt10filesystem16filesystem_errorC1ERKSsRKNS_4pathESt10error_code
00000000000f01f0 W _ZNSt10filesystem16filesystem_errorC1ERKSsSt10error_code
00000000000f0aa0 W _ZNSt10filesystem16filesystem_errorC2ERKSsRKNS_4pathES5_St10error_code
00000000000f1620 W _ZNSt10filesystem16filesystem_errorC2ERKSsRKNS_4pathESt10error_code
00000000000f01f0 W _ZNSt10filesystem16filesystem_errorC2ERKSsSt10error_code
00000000000faa20 T _ZNSt10filesystem16filesystem_errorD0Ev
00000000000fa8a0 T _ZNSt10filesystem16filesystem_errorD1Ev
00000000000fa8a0 T _ZNSt10filesystem16filesystem_errorD2Ev
00000000000f82d0 T _ZNSt10filesystem16weakly_canonicalERKNS_4pathE
00000000000f9170 T _ZNSt10filesystem16weakly_canonicalERKNS_4pathERSt10error_code
000000000010be90 T _ZNSt10filesystem16weakly_canonicalERKNS_7__cxx114pathE
000000000010cc50 T _ZNSt10filesystem16weakly_canonicalERKNS_7__cxx114pathERSt10error_code
00000000000f47a0 T _ZNSt10filesystem18create_directoriesERKNS_4pathE
00000000000f3ae0 T _ZNSt10filesystem18create_directoriesERKNS_4pathERSt10error_code
0000000000108510 T _ZNSt10filesystem18create_directoriesERKNS_7__cxx114pathE
0000000000107550 T _ZNSt10filesystem18create_directoriesERKNS_7__cxx114pathERSt10error_code
0000000000115ce0 T _ZNSt10filesystem18directory_iterator9incrementERSt10error_code
0000000000116b60 T _ZNSt10filesystem18directory_iteratorC1ERKNS_4pathENS_17directory_optionsEPSt10error_code
0000000000116b60 T _ZNSt10filesystem18directory_iteratorC2ERKNS_4pathENS_17directory_optionsEPSt10error_code
0000000000116980 T _ZNSt10filesystem18directory_iteratorppEv
0000000000103280 T _ZNSt10filesystem19temp_directory_pathB5cxx11ERSt10error_code
0000000000104000 T _ZNSt10filesystem19temp_directory_pathB5cxx11Ev
00000000000ef700 T _ZNSt10filesystem19temp_directory_pathERSt10error_code
00000000000f0600 T _ZNSt10filesystem19temp_directory_pathEv
00000000000f11c0 T _ZNSt10filesystem24create_directory_symlinkERKNS_4pathES2_
00000000000ed460 T _ZNSt10filesystem24create_directory_symlinkERKNS_4pathES2_RSt10error_code
0000000000105f40 T _ZNSt10filesystem24create_directory_symlinkERKNS_7__cxx114pathES3_
0000000000100920 T _ZNSt10filesystem24create_directory_symlinkERKNS_7__cxx114pathES3_RSt10error_code
0000000000115da0 T _ZNSt10filesystem28recursive_directory_iterator3popERSt10error_code
00000000001167d0 T _ZNSt10filesystem28recursive_directory_iterator3popEv
0000000000116030 T _ZNSt10filesystem28recursive_directory_iterator9incrementERSt10error_code
0000000000114620 T _ZNSt10filesystem28recursive_directory_iteratoraSEOS0_
0000000000114520 T _ZNSt10filesystem28recursive_directory_iteratoraSERKS0_
0000000000117120 T _ZNSt10filesystem28recursive_directory_iteratorC1ERKNS_4pathENS_17directory_optionsEPSt10error_code
0000000000117120 T _ZNSt10filesystem28recursive_directory_iteratorC2ERKNS_4pathENS_17directory_optionsEPSt10error_code
0000000000114410 T _ZNSt10filesystem28recursive_directory_iteratorD1Ev
0000000000114410 T _ZNSt10filesystem28recursive_directory_iteratorD2Ev
00000000001168b0 T _ZNSt10filesystem28recursive_directory_iteratorppEv
00000000000f36c0 T _ZNSt10filesystem4copyERKNS_4pathES2_NS_12copy_optionsE
00000000000f2d30 T _ZNSt10filesystem4copyERKNS_4pathES2_NS_12copy_optionsERSt10error_code
0000000000106350 T _ZNSt10filesystem4copyERKNS_7__cxx114pathES3_NS_12copy_optionsE
00000000001048e0 T _ZNSt10filesystem4copyERKNS_7__cxx114pathES3_NS_12copy_optionsERSt10error_code
0000000000114e00 W _ZNSt10filesystem4_Dir7advanceEbRSt10error_code
00000000001142d0 W _ZNSt10filesystem4_DirD1Ev
00000000001142d0 W _ZNSt10filesystem4_DirD2Ev
00000000000fb3f0 T _ZNSt10filesystem4path14_M_split_cmptsEv
00000000000ffc80 T _ZNSt10filesystem4path14_S_convert_locEPKcS2_RKSt6locale
00000000000fc940 T _ZNSt10filesystem4path15_M_add_filenameEmm
00000000000fc860 T _ZNSt10filesystem4path15_M_add_root_dirEm
00000000000fcfa0 T _ZNSt10filesystem4path15remove_filenameEv
00000000000fbe50 T _ZNSt10filesystem4path16_M_add_root_nameEm
00000000000fd3f0 T _ZNSt10filesystem4path16replace_filenameERKS0_
00000000000fb6d0 T _ZNSt10filesystem4path17replace_extensionERKS0_
00000000000faf20 T _ZNSt10filesystem4path7_M_trimEv
00000000000ee3a0 W _ZNSt10filesystem4pathaSEOS0_
00000000000a3130 W _ZNSt10filesystem4pathaSIA21_cEERNSt9enable_ifIXsrSt6__and_IJSt6__not_ISt7is_sameINSt9remove_cvIT_E4typeES0_EES5_ISt7is_voidIS8_EENS0_20__constructible_fromIS8_vEEEE5valueES0_E4typeERKS8_
00000000000eec90 W _ZNSt10filesystem4pathC1ERKS0_
00000000000eec90 W _ZNSt10filesystem4pathC2ERKS0_
00000000000a2b60 W _ZNSt10filesystem4pathD1Ev
00000000000a2b60 W _ZNSt10filesystem4pathD2Ev
00000000000f23e0 T _ZNSt10filesystem5spaceERKNS_4pathE
00000000000edc70 T _ZNSt10filesystem5spaceERKNS_4pathERSt10error_code
0000000000107190 T _ZNSt10filesystem5spaceERKNS_7__cxx114pathE
0000000000101130 T _ZNSt10filesystem5spaceERKNS_7__cxx114pathERSt10error_code
00000000000f2160 T _ZNSt10filesystem6removeERKNS_4pathE
00000000000edb70 T _ZNSt10filesystem6removeERKNS_4pathERSt10error_code
0000000000106f40 T _ZNSt10filesystem6removeERKNS_7__cxx114pathE
0000000000101030 T _ZNSt10filesystem6removeERKNS_7__cxx114pathERSt10error_code
00000000000f1540 T _ZNSt10filesystem6renameERKNS_4pathES2_
00000000000edbe0 T _ZNSt10filesystem6renameERKNS_4pathES2_RSt10error_code
0000000000106280 T _ZNSt10filesystem6renameERKNS_7__cxx114pathES3_
00000000001010a0 T _ZNSt10filesystem6renameERKNS_7__cxx114pathES3_RSt10error_code
00000000000f24c0 T _ZNSt10filesystem6statusERKNS_4pathE
00000000000edd20 T _ZNSt10filesystem6statusERKNS_4pathERSt10error_code
0000000000107260 T _ZNSt10filesystem6statusERKNS_7__cxx114pathE
00000000001011e0 T _ZNSt10filesystem6statusERKNS_7__cxx114pathERSt10error_code
000000000010ec90 T _ZNSt10filesystem7__cxx1110hash_valueERKNS0_4pathE
000000000010f190 T _ZNSt10filesystem7__cxx1116filesystem_error11_M_gen_whatEv
0000000000105850 W _ZNSt10filesystem7__cxx1116filesystem_errorC1ERKNSt7__cxx1112basic_stringIcSt11char_traitsIcESaIcEEERKNS0_4pathESC_St10error_code
0000000000106430 W _ZNSt10filesystem7__cxx1116filesystem_errorC1ERKNSt7__cxx1112basic_stringIcSt11char_traitsIcESaIcEEERKNS0_4pathESt10error_code
0000000000103b80 W _ZNSt10filesystem7__cxx1116filesystem_errorC1ERKNSt7__cxx1112basic_stringIcSt11char_traitsIcESaIcEEESt10error_code
0000000000105850 W _ZNSt10filesystem7__cxx1116filesystem_errorC2ERKNSt7__cxx1112basic_stringIcSt11char_traitsIcESaIcEEERKNS0_4pathESC_St10error_code
0000000000106430 W _ZNSt10filesystem7__cxx1116filesystem_errorC2ERKNSt7__cxx1112basic_stringIcSt11char_traitsIcESaIcEEERKNS0_4pathESt10error_code
0000000000103b80 W _ZNSt10filesystem7__cxx1116filesystem_errorC2ERKNSt7__cxx1112basic_stringIcSt11char_traitsIcESaIcEEESt10error_code
000000000010e6d0 T _ZNSt10filesystem7__cxx1116filesystem_errorD0Ev
000000000010e600 T _ZNSt10filesystem7__cxx1116filesystem_errorD1Ev
000000000010e600 T _ZNSt10filesystem7__cxx1116filesystem_errorD2Ev
0000000000119520 T _ZNSt10filesystem7__cxx1118directory_iterator9incrementERSt10error_code
00000000001198f0 T _ZNSt10filesystem7__cxx1118directory_iteratorC1ERKNS0_4pathENS_17directory_optionsEPSt10error_code
00000000001198f0 T _ZNSt10filesystem7__cxx1118directory_iteratorC2ERKNS0_4pathENS_17directory_optionsEPSt10error_code
000000000011aae0 T _ZNSt10filesystem7__cxx1118directory_iteratorppEv
00000000001195e0 T _ZNSt10filesystem7__cxx1128recursive_directory_iterator3popERSt10error_code
0000000000119810 T _ZNSt10filesystem7__cxx1128recursive_directory_iterator3popEv
0000000000119e20 T _ZNSt10filesystem7__cxx1128recursive_directory_iterator9incrementERSt10error_code
00000000001180a0 T _ZNSt10filesystem7__cxx1128recursive_directory_iteratoraSEOS1_
0000000000117fa0 T _ZNSt10filesystem7__cxx1128recursive_directory_iteratoraSERKS1_
000000000011a4a0 T _ZNSt10filesystem7__cxx1128recursive_directory_iteratorC1ERKNS0_4pathENS_17directory_optionsEPSt10error_code
000000000011a4a0 T _ZNSt10filesystem7__cxx1128recursive_directory_iteratorC2ERKNS0_4pathENS_17directory_optionsEPSt10error_code
0000000000117e90 T _ZNSt10filesystem7__cxx1128recursive_directory_iteratorD1Ev
0000000000117e90 T _ZNSt10filesystem7__cxx1128recursive_directory_iteratorD2Ev
000000000011a3d0 T _ZNSt10filesystem7__cxx1128recursive_directory_iteratorppEv
00000000001187b0 W _ZNSt10filesystem7__cxx114_Dir7advanceEbRSt10error_code
0000000000117de0 W _ZNSt10filesystem7__cxx114_DirD1Ev
0000000000117de0 W _ZNSt10filesystem7__cxx114_DirD2Ev
000000000010fb10 T _ZNSt10filesystem7__cxx114path14_M_split_cmptsEv
0000000000113260 T _ZNSt10filesystem7__cxx114path14_S_convert_locEPKcS3_RKSt6locale
000000000010fa50 T _ZNSt10filesystem7__cxx114path15_M_add_filenameEmm
000000000010f980 T _ZNSt10filesystem7__cxx114path15_M_add_root_dirEm
0000000000110630 T _ZNSt10filesystem7__cxx114path15remove_filenameEv
0000000000110410 T _ZNSt10filesystem7__cxx114path16_M_add_root_nameEm
00000000001111f0 T _ZNSt10filesystem7__cxx114path16replace_filenameERKS1_
000000000010fd50 T _ZNSt10filesystem7__cxx114path17replace_extensionERKS1_
000000000010ebe0 T _ZNSt10filesystem7__cxx114path7_M_trimEv
00000000001006e0 W _ZNSt10filesystem7__cxx114pathaSEOS1_
00000000001040d0 W _ZNSt10filesystem7__cxx114pathC1ERKS1_
00000000001040d0 W _ZNSt10filesystem7__cxx114pathC2ERKS1_
0000000000100680 W _ZNSt10filesystem7__cxx114pathD1Ev
0000000000100680 W _ZNSt10filesystem7__cxx114pathD2Ev
00000000001047f0 W _ZNSt10filesystem7__cxx114pathdVERKS1_
00000000000f07a0 T _ZNSt10filesystem8absoluteERKNS_4pathE
00000000000efcf0 T _ZNSt10filesystem8absoluteERKNS_4pathERSt10error_code
00000000001055e0 T _ZNSt10filesystem8absoluteERKNS_7__cxx114pathE
0000000000105230 T _ZNSt10filesystem8absoluteERKNS_7__cxx114pathERSt10error_code
00000000000f1e00 T _ZNSt10filesystem8is_emptyERKNS_4pathE
00000000000edfc0 T _ZNSt10filesystem8is_emptyERKNS_4pathERSt10error_code
0000000000106b50 T _ZNSt10filesystem8is_emptyERKNS_7__cxx114pathE
0000000000101480 T _ZNSt10filesystem8is_emptyERKNS_7__cxx114pathERSt10error_code
00000000000f8ff0 T _ZNSt10filesystem8relativeERKNS_4pathES2_
00000000000fa160 T _ZNSt10filesystem8relativeERKNS_4pathES2_RSt10error_code
000000000010cb30 T _ZNSt10filesystem8relativeERKNS_7__cxx114pathES3_
000000000010dfa0 T _ZNSt10filesystem8relativeERKNS_7__cxx114pathES3_RSt10error_code
00000000000f81f0 T _ZNSt10filesystem9canonicalERKNS_4pathE
00000000000f7740 T _ZNSt10filesystem9canonicalERKNS_4pathERSt10error_code
000000000010bdc0 T _ZNSt10filesystem9canonicalERKNS_7__cxx114pathE
000000000010b210 T _ZNSt10filesystem9canonicalERKNS_7__cxx114pathERSt10error_code
00000000000f10d0 T _ZNSt10filesystem9copy_fileERKNS_4pathES2_NS_12copy_optionsE
00000000000ed3a0 T _ZNSt10filesystem9copy_fileERKNS_4pathES2_NS_12copy_optionsERSt10error_code
0000000000105d90 T _ZNSt10filesystem9copy_fileERKNS_7__cxx114pathES3_NS_12copy_optionsE
00000000001024f0 T _ZNSt10filesystem9copy_fileERKNS_7__cxx114pathES3_NS_12copy_optionsERSt10error_code
00000000001141f0 W _ZNSt10filesystem9_Dir_base7advanceEbRSt10error_code
0000000000114190 W _ZNSt10filesystem9_Dir_baseC1EPKcbRSt10error_code
0000000000114190 W _ZNSt10filesystem9_Dir_baseC2EPKcbRSt10error_code
00000000000f1c60 T _ZNSt10filesystem9file_sizeERKNS_4pathE
00000000000ed860 T _ZNSt10filesystem9file_sizeERKNS_4pathERSt10error_code
00000000001069d0 T _ZNSt10filesystem9file_sizeERKNS_7__cxx114pathE
0000000000100d20 T _ZNSt10filesystem9file_sizeERKNS_7__cxx114pathERSt10error_code
00000000000f8e70 T _ZNSt10filesystem9proximateERKNS_4pathES2_
00000000000f9d30 T _ZNSt10filesystem9proximateERKNS_4pathES2_RSt10error_code
000000000010ca10 T _ZNSt10filesystem9proximateERKNS_7__cxx114pathES3_
000000000010dbc0 T _ZNSt10filesystem9proximateERKNS_7__cxx114pathES3_RSt10error_code
000000000006e1a0 W _ZNSt11char_traitsIcE6lengthEPKc
0000000000081c90 W _ZNSt11_Deque_baseIjSaIjEE17_M_initialize_mapEm
0000000000080b90 W _ZNSt11_Deque_baseIjSaIjEED1Ev
0000000000080b90 W _ZNSt11_Deque_baseIjSaIjEED2Ev
00000000000eeab0 W _ZNSt11_Deque_baseINSt10filesystem4pathESaIS1_EE17_M_initialize_mapEm
0000000000102ad0 W _ZNSt11_Deque_baseINSt10filesystem7__cxx114pathESaIS2_EE17_M_initialize_mapEm
000000000013dae0 T _ZNSt11logic_erroraSERKS_
000000000013db40 T _ZNSt11logic_errorC1EPKc
000000000013f260 T _ZNSt11logic_errorC1ERKNSt7__cxx1112basic_stringIcSt11char_traitsIcESaIcEEE
000000000013dac0 T _ZNSt11logic_errorC1ERKS_
000000000013db40 T _ZNSt11logic_errorC2EPKc
000000000013f260 T _ZNSt11logic_errorC2ERKNSt7__cxx1112basic_stringIcSt11char_traitsIcESaIcEEE
000000000013dac0 T _ZNSt11logic_errorC2ERKS_
                 U _ZNSt11logic_errorD1Ev
                 U _ZNSt11logic_errorD2Ev
000000000013dc80 T _ZNSt11range_errorC1EPKc
000000000013f340 T _ZNSt11range_errorC1ERKNSt7__cxx1112basic_stringIcSt11char_traitsIcESaIcEEE
000000000013dc80 T _ZNSt11range_errorC2EPKc
000000000013f340 T _ZNSt11range_errorC2ERKNSt7__cxx1112basic_stringIcSt11char_traitsIcESaIcEEE
                 U _ZNSt11range_errorD1Ev
                 U _ZNSt12__basic_fileIcE8sys_openEiSt13_Ios_Openmode
                 U _ZNSt12__basic_fileIcED1Ev
00000000000fa830 W _ZNSt12codecvt_utf8IwLm1114111ELSt12codecvt_mode0EED0Ev
00000000000fa810 W _ZNSt12codecvt_utf8IwLm1114111ELSt12codecvt_mode0EED1Ev
00000000000fa810 W _ZNSt12codecvt_utf8IwLm1114111ELSt12codecvt_mode0EED2Ev
000000000013dba0 T _ZNSt12domain_errorC1EPKc
000000000013f290 T _ZNSt12domain_errorC1ERKNSt7__cxx1112basic_stringIcSt11char_traitsIcESaIcEEE
000000000013dba0 T _ZNSt12domain_errorC2EPKc
000000000013f290 T _ZNSt12domain_errorC2ERKNSt7__cxx1112basic_stringIcSt11char_traitsIcESaIcEEE
                 U _ZNSt12domain_errorD1Ev
000000000013dbe0 T _ZNSt12length_errorC1EPKc
000000000013f2d0 T _ZNSt12length_errorC1ERKNSt7__cxx1112basic_stringIcSt11char_traitsIcESaIcEEE
000000000013dbe0 T _ZNSt12length_errorC2EPKc
000000000013f2d0 T _ZNSt12length_errorC2ERKNSt7__cxx1112basic_stringIcSt11char_traitsIcESaIcEEE
                 U _ZNSt12length_errorD1Ev
000000000013dc00 T _ZNSt12out_of_rangeC1EPKc
000000000013f2f0 T _ZNSt12out_of_rangeC1ERKNSt7__cxx1112basic_stringIcSt11char_traitsIcESaIcEEE
000000000013dc00 T _ZNSt12out_of_rangeC2EPKc
000000000013f2f0 T _ZNSt12out_of_rangeC2ERKNSt7__cxx1112basic_stringIcSt11char_traitsIcESaIcEEE
                 U _ZNSt12out_of_rangeD1Ev
                 U _ZNSt12system_errorD1Ev
                 U _ZNSt12system_errorD2Ev
                 U _ZNSt13basic_filebufIcSt11char_traitsIcEE27_M_allocate_internal_bufferEv
                 U _ZNSt13basic_filebufIcSt11char_traitsIcEE4openEPKcSt13_Ios_Openmode
                 U _ZNSt13basic_filebufIcSt11char_traitsIcEE4syncEv
                 U _ZNSt13basic_filebufIcSt11char_traitsIcEE5closeEv
                 U _ZNSt13basic_filebufIcSt11char_traitsIcEE5imbueERKSt6locale
                 U _ZNSt13basic_filebufIcSt11char_traitsIcEE6setbufEPcl
                 U _ZNSt13basic_filebufIcSt11char_traitsIcEE6xsgetnEPcl
                 U _ZNSt13basic_filebufIcSt11char_traitsIcEE6xsputnEPKcl
                 U _ZNSt13basic_filebufIcSt11char_traitsIcEE7seekoffElSt12_Ios_SeekdirSt13_Ios_Openmode
                 U _ZNSt13basic_filebufIcSt11char_traitsIcEE7seekposESt4fposI11__mbstate_tESt13_Ios_Openmode
                 U _ZNSt13basic_filebufIcSt11char_traitsIcEE8overflowEi
                 U _ZNSt13basic_filebufIcSt11char_traitsIcEE9pbackfailEi
                 U _ZNSt13basic_filebufIcSt11char_traitsIcEE9showmanycEv
                 U _ZNSt13basic_filebufIcSt11char_traitsIcEE9underflowEv
                 U _ZNSt13basic_filebufIcSt11char_traitsIcEEC1Ev
                 U _ZNSt13basic_filebufIcSt11char_traitsIcEEC2Ev
                 U _ZNSt13basic_filebufIcSt11char_traitsIcEED1Ev
                 U _ZNSt13basic_filebufIcSt11char_traitsIcEED2Ev
000000000013db20 T _ZNSt13runtime_erroraSERKS_
000000000013dc20 T _ZNSt13runtime_errorC1EPKc
000000000013f310 T _ZNSt13runtime_errorC1ERKNSt7__cxx1112basic_stringIcSt11char_traitsIcESaIcEEE
000000000013db00 T _ZNSt13runtime_errorC1ERKS_
000000000013dc20 T _ZNSt13runtime_errorC2EPKc
000000000013f310 T _ZNSt13runtime_errorC2ERKNSt7__cxx1112basic_stringIcSt11char_traitsIcESaIcEEE
000000000013db00 T _ZNSt13runtime_errorC2ERKS_
                 U _ZNSt13runtime_errorC2ERKSs
                 U _ZNSt13runtime_errorD1Ev
                 U _ZNSt13runtime_errorD2Ev
                 U _ZNSt14basic_ifstreamIcSt11char_traitsIcEEC1Ev
                 U _ZNSt14basic_ifstreamIcSt11char_traitsIcEED1Ev
                 U _ZNSt14basic_ofstreamIcSt11char_traitsIcEE5closeEv
                 U _ZNSt14basic_ofstreamIcSt11char_traitsIcEED1Ev
000000000013dca0 T _ZNSt14overflow_errorC1EPKc
000000000013f360 T _ZNSt14overflow_errorC1ERKNSt7__cxx1112basic_stringIcSt11char_traitsIcESaIcEEE
000000000013dca0 T _ZNSt14overflow_errorC2EPKc
000000000013f360 T _ZNSt14overflow_errorC2ERKNSt7__cxx1112basic_stringIcSt11char_traitsIcESaIcEEE
                 U _ZNSt14overflow_errorD1Ev
                 U _ZNSt15basic_streambufIcSt11char_traitsIcEE5uflowEv
00000000000e17e0 W _ZNSt15__exception_ptr12__dest_thunkIN5boost4asio19multiple_exceptionsEEEvPv
                 U _ZNSt15__exception_ptr13exception_ptr4swapERS0_
000000000013ec50 T _ZNSt15__exception_ptr13exception_ptrC1EPv
                 U _ZNSt15__exception_ptr13exception_ptrC1ERKS0_
                 U _ZNSt15__exception_ptr13exception_ptrC1Ev
                 U _ZNSt15__exception_ptr13exception_ptrD1Ev
00000000000e2070 W _ZNSt15_Sp_counted_ptrIPSt6vectorIN5boost4asio2ip20basic_resolver_entryINS3_3tcpEEESaIS6_EELN9__gnu_cxx12_Lock_policyE2EE10_M_destroyEv
00000000000e2f80 W _ZNSt15_Sp_counted_ptrIPSt6vectorIN5boost4asio2ip20basic_resolver_entryINS3_3tcpEEESaIS6_EELN9__gnu_cxx12_Lock_policyE2EE10_M_disposeEv
00000000000e1e00 W _ZNSt15_Sp_counted_ptrIPSt6vectorIN5boost4asio2ip20basic_resolver_entryINS3_3tcpEEESaIS6_EELN9__gnu_cxx12_Lock_policyE2EE14_M_get_deleterERKSt9type_info
00000000000e2060 W _ZNSt15_Sp_counted_ptrIPSt6vectorIN5boost4asio2ip20basic_resolver_entryINS3_3tcpEEESaIS6_EELN9__gnu_cxx12_Lock_policyE2EED0Ev
00000000000e1d80 W _ZNSt15_Sp_counted_ptrIPSt6vectorIN5boost4asio2ip20basic_resolver_entryINS3_3tcpEEESaIS6_EELN9__gnu_cxx12_Lock_policyE2EED1Ev
00000000000e1d80 W _ZNSt15_Sp_counted_ptrIPSt6vectorIN5boost4asio2ip20basic_resolver_entryINS3_3tcpEEESaIS6_EELN9__gnu_cxx12_Lock_policyE2EED2Ev
000000000013dcc0 T _ZNSt15underflow_errorC1EPKc
000000000013f380 T _ZNSt15underflow_errorC1ERKNSt7__cxx1112basic_stringIcSt11char_traitsIcESaIcEEE
000000000013dcc0 T _ZNSt15underflow_errorC2EPKc
000000000013f380 T _ZNSt15underflow_errorC2ERKNSt7__cxx1112basic_stringIcSt11char_traitsIcESaIcEEE
                 U _ZNSt15underflow_errorD1Ev
000000000013dbc0 T _ZNSt16invalid_argumentC1EPKc
000000000013f2b0 T _ZNSt16invalid_argumentC1ERKNSt7__cxx1112basic_stringIcSt11char_traitsIcESaIcEEE
000000000013dbc0 T _ZNSt16invalid_argumentC2EPKc
000000000013f2b0 T _ZNSt16invalid_argumentC2ERKNSt7__cxx1112basic_stringIcSt11char_traitsIcESaIcEEE
                 U _ZNSt16invalid_argumentD1Ev
                 U _ZNSt18condition_variable10notify_oneEv
                 U _ZNSt18condition_variable4waitERSt11unique_lockISt5mutexE
                 U _ZNSt18condition_variableC1Ev
                 U _ZNSt18condition_variableD1Ev
                 U _ZNSt19basic_ostringstreamIcSt11char_traitsIcESaIcEED1Ev
000000000013bb30 T _ZNSt19__codecvt_utf8_baseIDiED0Ev
000000000013ba30 T _ZNSt19__codecvt_utf8_baseIDiED1Ev
000000000013ba30 T _ZNSt19__codecvt_utf8_baseIDiED2Ev
000000000013bab0 T _ZNSt19__codecvt_utf8_baseIDsED0Ev
000000000013b9b0 T _ZNSt19__codecvt_utf8_baseIDsED1Ev
000000000013b9b0 T _ZNSt19__codecvt_utf8_baseIDsED2Ev
000000000013bca0 T _ZNSt19__codecvt_utf8_baseIwED0Ev
000000000013bc80 T _ZNSt19__codecvt_utf8_baseIwED1Ev
000000000013bc80 T _ZNSt19__codecvt_utf8_baseIwED2Ev
00000000000e23c0 W _ZNSt19_Sp_counted_deleterIPvN5boost4asio6detail10socket_ops12noop_deleterESaIvELN9__gnu_cxx12_Lock_policyE2EE10_M_destroyEv
00000000000e1e30 W _ZNSt19_Sp_counted_deleterIPvN5boost4asio6detail10socket_ops12noop_deleterESaIvELN9__gnu_cxx12_Lock_policyE2EE10_M_disposeEv
00000000000e20f0 W _ZNSt19_Sp_counted_deleterIPvN5boost4asio6detail10socket_ops12noop_deleterESaIvELN9__gnu_cxx12_Lock_policyE2EE14_M_get_deleterERKSt9type_info
00000000000e2080 W _ZNSt19_Sp_counted_deleterIPvN5boost4asio6detail10socket_ops12noop_deleterESaIvELN9__gnu_cxx12_Lock_policyE2EED0Ev
00000000000e1e20 W _ZNSt19_Sp_counted_deleterIPvN5boost4asio6detail10socket_ops12noop_deleterESaIvELN9__gnu_cxx12_Lock_policyE2EED1Ev
00000000000e1e20 W _ZNSt19_Sp_counted_deleterIPvN5boost4asio6detail10socket_ops12noop_deleterESaIvELN9__gnu_cxx12_Lock_policyE2EED2Ev
000000000013f710 T _ZNSt20bad_array_new_lengthD0Ev
000000000013f6f0 T _ZNSt20bad_array_new_lengthD1Ev
000000000013f6f0 T _ZNSt20bad_array_new_lengthD2Ev
000000000013bb50 T _ZNSt20__codecvt_utf16_baseIDiED0Ev
000000000013ba50 T _ZNSt20__codecvt_utf16_baseIDiED1Ev
000000000013ba50 T _ZNSt20__codecvt_utf16_baseIDiED2Ev
000000000013bad0 T _ZNSt20__codecvt_utf16_baseIDsED0Ev
000000000013b9d0 T _ZNSt20__codecvt_utf16_baseIDsED1Ev
000000000013b9d0 T _ZNSt20__codecvt_utf16_baseIDsED2Ev
000000000013bce0 T _ZNSt20__codecvt_utf16_baseIwED0Ev
000000000013bcc0 T _ZNSt20__codecvt_utf16_baseIwED1Ev
000000000013bcc0 T _ZNSt20__codecvt_utf16_baseIwED2Ev
0000000000081e00 W _ZNSt20__uninitialized_copyILb0EE13__uninit_copyIPKSt5dequeIjSaIjEEPS4_EET0_T_S9_S8_
00000000000e23b0 W _ZNSt23_Sp_counted_ptr_inplaceIN5boost4asio10io_contextESaIS2_ELN9__gnu_cxx12_Lock_policyE2EE10_M_destroyEv
00000000000e43c0 W _ZNSt23_Sp_counted_ptr_inplaceIN5boost4asio10io_contextESaIS2_ELN9__gnu_cxx12_Lock_policyE2EE10_M_disposeEv
00000000000e20b0 W _ZNSt23_Sp_counted_ptr_inplaceIN5boost4asio10io_contextESaIS2_ELN9__gnu_cxx12_Lock_policyE2EE14_M_get_deleterERKSt9type_info
00000000000e20a0 W _ZNSt23_Sp_counted_ptr_inplaceIN5boost4asio10io_contextESaIS2_ELN9__gnu_cxx12_Lock_policyE2EED0Ev
00000000000e1e10 W _ZNSt23_Sp_counted_ptr_inplaceIN5boost4asio10io_contextESaIS2_ELN9__gnu_cxx12_Lock_policyE2EED1Ev
00000000000e1e10 W _ZNSt23_Sp_counted_ptr_inplaceIN5boost4asio10io_contextESaIS2_ELN9__gnu_cxx12_Lock_policyE2EED2Ev
0000000000113960 W _ZNSt23_Sp_counted_ptr_inplaceINSt10filesystem28recursive_directory_iterator10_Dir_stackESaIS2_ELN9__gnu_cxx12_Lock_policyE2EE10_M_destroyEv
0000000000113a60 W _ZNSt23_Sp_counted_ptr_inplaceINSt10filesystem28recursive_directory_iterator10_Dir_stackESaIS2_ELN9__gnu_cxx12_Lock_policyE2EE10_M_disposeEv
00000000001139c0 W _ZNSt23_Sp_counted_ptr_inplaceINSt10filesystem28recursive_directory_iterator10_Dir_stackESaIS2_ELN9__gnu_cxx12_Lock_policyE2EE14_M_get_deleterERKSt9type_info
0000000000113a10 W _ZNSt23_Sp_counted_ptr_inplaceINSt10filesystem28recursive_directory_iterator10_Dir_stackESaIS2_ELN9__gnu_cxx12_Lock_policyE2EED0Ev
0000000000113940 W _ZNSt23_Sp_counted_ptr_inplaceINSt10filesystem28recursive_directory_iterator10_Dir_stackESaIS2_ELN9__gnu_cxx12_Lock_policyE2EED1Ev
0000000000113940 W _ZNSt23_Sp_counted_ptr_inplaceINSt10filesystem28recursive_directory_iterator10_Dir_stackESaIS2_ELN9__gnu_cxx12_Lock_policyE2EED2Ev
0000000000113970 W _ZNSt23_Sp_counted_ptr_inplaceINSt10filesystem4_DirESaIS1_ELN9__gnu_cxx12_Lock_policyE2EE10_M_destroyEv
0000000000114050 W _ZNSt23_Sp_counted_ptr_inplaceINSt10filesystem4_DirESaIS1_ELN9__gnu_cxx12_Lock_policyE2EE10_M_disposeEv
0000000000113980 W _ZNSt23_Sp_counted_ptr_inplaceINSt10filesystem4_DirESaIS1_ELN9__gnu_cxx12_Lock_policyE2EE14_M_get_deleterERKSt9type_info
0000000000113a00 W _ZNSt23_Sp_counted_ptr_inplaceINSt10filesystem4_DirESaIS1_ELN9__gnu_cxx12_Lock_policyE2EED0Ev
0000000000113950 W _ZNSt23_Sp_counted_ptr_inplaceINSt10filesystem4_DirESaIS1_ELN9__gnu_cxx12_Lock_policyE2EED1Ev
0000000000113950 W _ZNSt23_Sp_counted_ptr_inplaceINSt10filesystem4_DirESaIS1_ELN9__gnu_cxx12_Lock_policyE2EED2Ev
0000000000117820 W _ZNSt23_Sp_counted_ptr_inplaceINSt10filesystem7__cxx1128recursive_directory_iterator10_Dir_stackESaIS3_ELN9__gnu_cxx12_Lock_policyE2EE10_M_destroyEv
0000000000117950 W _ZNSt23_Sp_counted_ptr_inplaceINSt10filesystem7__cxx1128recursive_directory_iterator10_Dir_stackESaIS3_ELN9__gnu_cxx12_Lock_policyE2EE10_M_disposeEv
0000000000117880 W _ZNSt23_Sp_counted_ptr_inplaceINSt10filesystem7__cxx1128recursive_directory_iterator10_Dir_stackESaIS3_ELN9__gnu_cxx12_Lock_policyE2EE14_M_get_deleterERKSt9type_info
00000000001178d0 W _ZNSt23_Sp_counted_ptr_inplaceINSt10filesystem7__cxx1128recursive_directory_iterator10_Dir_stackESaIS3_ELN9__gnu_cxx12_Lock_policyE2EED0Ev
0000000000117800 W _ZNSt23_Sp_counted_ptr_inplaceINSt10filesystem7__cxx1128recursive_directory_iterator10_Dir_stackESaIS3_ELN9__gnu_cxx12_Lock_policyE2EED1Ev
0000000000117800 W _ZNSt23_Sp_counted_ptr_inplaceINSt10filesystem7__cxx1128recursive_directory_iterator10_Dir_stackESaIS3_ELN9__gnu_cxx12_Lock_policyE2EED2Ev
0000000000117830 W _ZNSt23_Sp_counted_ptr_inplaceINSt10filesystem7__cxx114_DirESaIS2_ELN9__gnu_cxx12_Lock_policyE2EE10_M_destroyEv
0000000000117d20 W _ZNSt23_Sp_counted_ptr_inplaceINSt10filesystem7__cxx114_DirESaIS2_ELN9__gnu_cxx12_Lock_policyE2EE10_M_disposeEv
0000000000117840 W _ZNSt23_Sp_counted_ptr_inplaceINSt10filesystem7__cxx114_DirESaIS2_ELN9__gnu_cxx12_Lock_policyE2EE14_M_get_deleterERKSt9type_info
00000000001178c0 W _ZNSt23_Sp_counted_ptr_inplaceINSt10filesystem7__cxx114_DirESaIS2_ELN9__gnu_cxx12_Lock_policyE2EED0Ev
0000000000117810 W _ZNSt23_Sp_counted_ptr_inplaceINSt10filesystem7__cxx114_DirESaIS2_ELN9__gnu_cxx12_Lock_policyE2EED1Ev
0000000000117810 W _ZNSt23_Sp_counted_ptr_inplaceINSt10filesystem7__cxx114_DirESaIS2_ELN9__gnu_cxx12_Lock_policyE2EED2Ev
000000000013bb70 T _ZNSt25__codecvt_utf8_utf16_baseIDiED0Ev
000000000013ba70 T _ZNSt25__codecvt_utf8_utf16_baseIDiED1Ev
000000000013ba70 T _ZNSt25__codecvt_utf8_utf16_baseIDiED2Ev
000000000013baf0 T _ZNSt25__codecvt_utf8_utf16_baseIDsED0Ev
000000000013b9f0 T _ZNSt25__codecvt_utf8_utf16_baseIDsED1Ev
000000000013b9f0 T _ZNSt25__codecvt_utf8_utf16_baseIDsED2Ev
000000000013bd20 T _ZNSt25__codecvt_utf8_utf16_baseIwED0Ev
000000000013bd00 T _ZNSt25__codecvt_utf8_utf16_baseIwED1Ev
000000000013bd00 T _ZNSt25__codecvt_utf8_utf16_baseIwED2Ev
00000000000d15f0 W _ZNSt27__uninitialized_default_n_1ILb0EE18__uninit_default_nIPSt5dequeIjSaIjEEmEET_S6_T0_
00000000000d1440 W _ZNSt3mapIjjSt4lessIjESaISt4pairIKjjEEEixERS3_
00000000000e98d0 W _ZNSt3mapIPKN5boost6system14error_categoryESt10unique_ptrINS1_6detail12std_categoryESt14default_deleteIS7_EENS6_12cat_ptr_lessESaISt4pairIKS4_SA_EEED1Ev
00000000000e98d0 W _ZNSt3mapIPKN5boost6system14error_categoryESt10unique_ptrINS1_6detail12std_categoryESt14default_deleteIS7_EENS6_12cat_ptr_lessESaISt4pairIKS4_SA_EEED2Ev
000000000013b580 T _ZNSt3_V214error_categoryD0Ev
000000000013b510 T _ZNSt3_V214error_categoryD1Ev
000000000013b510 T _ZNSt3_V214error_categoryD2Ev
000000000013b5a0 T _ZNSt3_V215system_categoryEv
000000000013b5b0 T _ZNSt3_V216generic_categoryEv
00000000000b8e60 W _ZNSt5dequeI14a2y_gate_pos_tSaIS0_EE16_M_push_back_auxIJRKS0_EEEvDpOT_
00000000000b8c80 W _ZNSt5dequeI16input_gate_val_tSaIS0_EE16_M_push_back_auxIJRKS0_EEEvDpOT_
0000000000080bf0 W _ZNSt5dequeIjSaIjEE16_M_push_back_auxIJRKjEEEvDpOT_
0000000000091bf0 W _ZNSt5dequeIjSaIjEEC1ERKS1_
0000000000091bf0 W _ZNSt5dequeIjSaIjEEC2ERKS1_
00000000001146f0 W _ZNSt5dequeINSt10filesystem4_DirESaIS1_EE12emplace_backIJS1_EEERS1_DpOT_
0000000000114c80 W _ZNSt5dequeINSt10filesystem4_DirESaIS1_EE15_M_pop_back_auxEv
00000000000f4bb0 W _ZNSt5dequeINSt10filesystem4pathESaIS1_EE13_M_insert_auxINS1_8iteratorEEEvSt15_Deque_iteratorIS1_RS1_PS1_ET_SA_m
00000000000f3970 W _ZNSt5dequeINSt10filesystem4pathESaIS1_EE17_M_reallocate_mapEmb
00000000000f6c20 W _ZNSt5dequeINSt10filesystem4pathESaIS1_EE19_M_range_insert_auxINS1_8iteratorEEEvSt15_Deque_iteratorIS1_RS1_PS1_ET_SA_St20forward_iterator_tag
00000000000f49a0 W _ZNSt5dequeINSt10filesystem4pathESaIS1_EE23_M_new_elements_at_backEm
00000000000f4870 W _ZNSt5dequeINSt10filesystem4pathESaIS1_EE24_M_new_elements_at_frontEm
00000000000ee570 W _ZNSt5dequeINSt10filesystem4pathESaIS1_EED1Ev
00000000000ee570 W _ZNSt5dequeINSt10filesystem4pathESaIS1_EED2Ev
0000000000118170 W _ZNSt5dequeINSt10filesystem7__cxx114_DirESaIS2_EE12emplace_backIJS2_EEERS2_DpOT_
0000000000118600 W _ZNSt5dequeINSt10filesystem7__cxx114_DirESaIS2_EE15_M_pop_back_auxEv
0000000000108890 W _ZNSt5dequeINSt10filesystem7__cxx114pathESaIS2_EE13_M_insert_auxINS2_8iteratorEEEvSt15_Deque_iteratorIS2_RS2_PS2_ET_SB_m
00000000001073e0 W _ZNSt5dequeINSt10filesystem7__cxx114pathESaIS2_EE17_M_reallocate_mapEmb
000000000010a840 W _ZNSt5dequeINSt10filesystem7__cxx114pathESaIS2_EE19_M_range_insert_auxINS2_8iteratorEEEvSt15_Deque_iteratorIS2_RS2_PS2_ET_SB_St20forward_iterator_tag
00000000001086e0 W _ZNSt5dequeINSt10filesystem7__cxx114pathESaIS2_EE23_M_new_elements_at_backEm
00000000001085d0 W _ZNSt5dequeINSt10filesystem7__cxx114pathESaIS2_EE24_M_new_elements_at_frontEm
00000000001019e0 W _ZNSt5dequeINSt10filesystem7__cxx114pathESaIS2_EED1Ev
00000000001019e0 W _ZNSt5dequeINSt10filesystem7__cxx114pathESaIS2_EED2Ev
000000000011eb00 W _ZNSt5dequeIP10mask_blockSaIS1_EE16_M_push_back_auxIJRKS1_EEEvDpOT_
                 U _ZNSt6locale5facetD2Ev
                 U _ZNSt6locale7classicEv
                 U _ZNSt6localeC1Ev
                 U _ZNSt6localeD1Ev
000000000013f130 T _ZNSt6thread15_M_start_threadESt10shared_ptrINS_10_Impl_baseEEPFvvE
000000000013f030 T _ZNSt6thread15_M_start_threadESt10unique_ptrINS_6_StateESt14default_deleteIS1_EEPFvvE
                 U _ZNSt6thread4joinEv
000000000013f010 T _ZNSt6thread6_StateD0Ev
000000000013f000 T _ZNSt6thread6_StateD1Ev
000000000013f000 T _ZNSt6thread6_StateD2Ev
0000000000095c00 W _ZNSt6vectorI10CBitVectorSaIS0_EE17_M_default_appendEm
00000000000a41c0 W _ZNSt6vectorI10CBitVectorSaIS0_EE6resizeEm
0000000000073390 W _ZNSt6vectorI10CBitVectorSaIS0_EED1Ev
0000000000073390 W _ZNSt6vectorI10CBitVectorSaIS0_EED2Ev
00000000000a3fc0 W _ZNSt6vectorI11tt_lens_ctxSaIS0_EE17_M_default_appendEm
000000000007bf10 W _ZNSt6vectorI4GATESaIS0_EE17_M_default_appendEm
0000000000096430 W _ZNSt6vectorIhSaIhEE14_M_fill_insertEN9__gnu_cxx17__normal_iteratorIPhS1_EEmRKh
00000000000ddc50 W _ZNSt6vectorIhSaIhEE17_M_default_appendEm
0000000000096660 W _ZNSt6vectorIhSaIhEE6resizeEmRKh
00000000000d0e30 W _ZNSt6vectorIjSaIjEE12emplace_backIJjEEERjDpOT_
000000000007c0b0 W _ZNSt6vectorIjSaIjEE14_M_fill_insertEN9__gnu_cxx17__normal_iteratorIPjS1_EEmRKj
0000000000085d90 W _ZNSt6vectorIjSaIjEE17_M_default_appendEm
00000000000dbe10 W _ZNSt6vectorIjSaIjEE17_M_realloc_insertIJjEEEvN9__gnu_cxx17__normal_iteratorIPjS1_EEDpOT_
00000000000a4520 W _ZNSt6vectorIjSaIjEE17_M_realloc_insertIJRKjEEEvN9__gnu_cxx17__normal_iteratorIPjS1_EEDpOT_
00000000000cf850 W _ZNSt6vectorIjSaIjEE6resizeEm
00000000000d1360 W _ZNSt6vectorIjSaIjEE6resizeEmRKj
00000000000d0e00 W _ZNSt6vectorIjSaIjEE9push_backERKj
00000000000cf710 W _ZNSt6vectorIjSaIjEEaSERKS1_
00000000000cf430 W _ZNSt6vectorIjSaIjEEC1ERKS1_
00000000000cf430 W _ZNSt6vectorIjSaIjEEC2ERKS1_
00000000000998a0 W _ZNSt6vectorImSaImEE12emplace_backIJmEEERmDpOT_
0000000000099750 W _ZNSt6vectorImSaImEE17_M_realloc_insertIJmEEEvN9__gnu_cxx17__normal_iteratorIPmS1_EEDpOT_
00000000000ae750 W _ZNSt6vectorImSaImEE17_M_realloc_insertIJRKmEEEvN9__gnu_cxx17__normal_iteratorIPmS1_EEDpOT_
00000000000ead30 W _ZNSt6vectorIN5boost4asio2ip20basic_resolver_entryINS2_3tcpEEESaIS5_EE17_M_realloc_insertIJS5_EEEvN9__gnu_cxx17__normal_iteratorIPS5_S7_EEDpOT_
00000000000fc690 W _ZNSt6vectorINSt10filesystem4path5_CmptESaIS2_EE12emplace_backIJSsNS1_5_TypeERmEEERS2_DpOT_
00000000000fb870 W _ZNSt6vectorINSt10filesystem4path5_CmptESaIS2_EE17_M_realloc_insertIJSsNS1_5_TypeEiEEEvN9__gnu_cxx17__normal_iteratorIPS2_S4_EEDpOT_
00000000000fc0b0 W _ZNSt6vectorINSt10filesystem4path5_CmptESaIS2_EE17_M_realloc_insertIJSsNS1_5_TypeERmEEEvN9__gnu_cxx17__normal_iteratorIPS2_S4_EEDpOT_
00000000000eef40 W _ZNSt6vectorINSt10filesystem4path5_CmptESaIS2_EEaSERKS4_
00000000000a2a90 W _ZNSt6vectorINSt10filesystem4path5_CmptESaIS2_EED1Ev
00000000000a2a90 W _ZNSt6vectorINSt10filesystem4path5_CmptESaIS2_EED2Ev
000000000010f7b0 W _ZNSt6vectorINSt10filesystem7__cxx114path5_CmptESaIS3_EE12emplace_backIJNSt7__cxx1112basic_stringIcSt11char_traitsIcESaIcEEENS2_5_TypeERmEEERS3_DpOT_
000000000010feb0 W _ZNSt6vectorINSt10filesystem7__cxx114path5_CmptESaIS3_EE17_M_realloc_insertIJNSt7__cxx1112basic_stringIcSt11char_traitsIcESaIcEEENS2_5_TypeEiEEEvN9__gnu_cxx17__normal_iteratorIPS3_S5_EEDpOT_
000000000010f250 W _ZNSt6vectorINSt10filesystem7__cxx114path5_CmptESaIS3_EE17_M_realloc_insertIJNSt7__cxx1112basic_stringIcSt11char_traitsIcESaIcEEENS2_5_TypeERmEEEvN9__gnu_cxx17__normal_iteratorIPS3_S5_EEDpOT_
0000000000104220 W _ZNSt6vectorINSt10filesystem7__cxx114path5_CmptESaIS3_EEaSERKS5_
0000000000101830 W _ZNSt6vectorINSt10filesystem7__cxx114path5_CmptESaIS3_EED1Ev
0000000000101830 W _ZNSt6vectorINSt10filesystem7__cxx114path5_CmptESaIS3_EED2Ev
0000000000077860 W _ZNSt6vectorIP10CBitVectorSaIS1_EE17_M_default_appendEm
00000000001205d0 W _ZNSt6vectorIP10CBitVectorSaIS1_EE17_M_realloc_insertIJRKS1_EEEvN9__gnu_cxx17__normal_iteratorIPS1_S3_EEDpOT_
0000000000078060 W _ZNSt6vectorIP11IKNP_OTTaskSaIS1_EE17_M_default_appendEm
00000000000911b0 W _ZNSt6vectorIP11IKNP_OTTaskSaIS1_EE17_M_realloc_insertIJRKS1_EEEvN9__gnu_cxx17__normal_iteratorIPS1_S3_EEDpOT_
0000000000091300 W _ZNSt6vectorIP11PKMTGenValsSaIS1_EE17_M_realloc_insertIJRKS1_EEEvN9__gnu_cxx17__normal_iteratorIPS1_S3_EEDpOT_
0000000000077730 W _ZNSt6vectorIP17evp_cipher_ctx_stSaIS1_EE17_M_default_appendEm
000000000011e9b0 W _ZNSt6vectorIP17evp_cipher_ctx_stSaIS1_EE17_M_realloc_insertIJRKS1_EEEvN9__gnu_cxx17__normal_iteratorIPS1_S3_EEDpOT_
0000000000094aa0 W _ZNSt6vectorIP4GATESaIS1_EE17_M_realloc_insertIJRKS1_EEEvN9__gnu_cxx17__normal_iteratorIPS1_S3_EEDpOT_
0000000000094bf0 W _ZNSt6vectorIP4GATESaIS1_EE9push_backERKS1_
0000000000091450 W _ZNSt6vectorIP4GATESaIS1_EEaSERKS3_
0000000000075180 W _ZNSt6vectorIP7SharingSaIS1_EE17_M_default_appendEm
0000000000078190 W _ZNSt6vectorIP9KK_OTTaskSaIS1_EE17_M_default_appendEm
00000000000a3e70 W _ZNSt6vectorIP9KK_OTTaskSaIS1_EE17_M_realloc_insertIJRKS1_EEEvN9__gnu_cxx17__normal_iteratorIPS1_S3_EEDpOT_
0000000000099710 W _ZNSt6vectorIPhSaIS0_EE12emplace_backIJS0_EEERS0_DpOT_
00000000000ae600 W _ZNSt6vectorIPhSaIS0_EE17_M_realloc_insertIJRKS0_EEEvN9__gnu_cxx17__normal_iteratorIPS0_S2_EEDpOT_
00000000000995c0 W _ZNSt6vectorIPhSaIS0_EE17_M_realloc_insertIJS0_EEEvN9__gnu_cxx17__normal_iteratorIPS0_S2_EEDpOT_
00000000000d0c70 W _ZNSt6vectorIPmSaIS0_EE17_M_realloc_insertIJRKS0_EEEvN9__gnu_cxx17__normal_iteratorIPS0_S2_EEDpOT_
0000000000075050 W _ZNSt6vectorIPN8ABYParty18CPartyWorkerThreadESaIS2_EE17_M_default_appendEm
0000000000077f30 W _ZNSt6vectorIPN8ABYSetup13CWorkerThreadESaIS2_EE17_M_default_appendEm
00000000000ae4d0 W _ZNSt6vectorIPP10CBitVectorSaIS2_EE17_M_default_appendEm
00000000000adc10 W _ZNSt6vectorIS_I11tt_lens_ctxSaIS0_EESaIS2_EE17_M_default_appendEm
00000000000a2c40 W _ZNSt6vectorIS_I11tt_lens_ctxSaIS0_EESaIS2_EED1Ev
00000000000a2c40 W _ZNSt6vectorIS_I11tt_lens_ctxSaIS0_EESaIS2_EED2Ev
00000000000a4250 W _ZNSt6vectorIS_IjSaIjEESaIS1_EE17_M_default_appendEm
00000000000cf550 W _ZNSt6vectorIS_IjSaIjEESaIS1_EEC1ERKS3_
00000000000cf550 W _ZNSt6vectorIS_IjSaIjEESaIS1_EEC2ERKS3_
00000000000ad7b0 W _ZNSt6vectorIS_IjSaIjEESaIS1_EED1Ev
00000000000ad7b0 W _ZNSt6vectorIS_IjSaIjEESaIS1_EED2Ev
0000000000074c40 W _ZNSt6vectorIS_ImSaImEESaIS1_EED1Ev
0000000000074c40 W _ZNSt6vectorIS_ImSaImEESaIS1_EED2Ev
00000000000ae200 W _ZNSt6vectorIS_IP10CBitVectorSaIS1_EESaIS3_EE17_M_default_appendEm
00000000000ad810 W _ZNSt6vectorIS_IP10CBitVectorSaIS1_EESaIS3_EED1Ev
00000000000ad810 W _ZNSt6vectorIS_IP10CBitVectorSaIS1_EESaIS3_EED2Ev
0000000000077990 W _ZNSt6vectorIS_IP11IKNP_OTTaskSaIS1_EESaIS3_EE17_M_default_appendEm
0000000000077c60 W _ZNSt6vectorIS_IP9KK_OTTaskSaIS1_EESaIS3_EE17_M_default_appendEm
0000000000074be0 W _ZNSt6vectorIS_IPhSaIS0_EESaIS2_EED1Ev
0000000000074be0 W _ZNSt6vectorIS_IPhSaIS0_EESaIS2_EED2Ev
00000000000adf30 W _ZNSt6vectorIS_IPP10CBitVectorSaIS2_EESaIS4_EE17_M_default_appendEm
00000000000ad870 W _ZNSt6vectorIS_IS_I11tt_lens_ctxSaIS0_EESaIS2_EESaIS4_EE17_M_default_appendEm
00000000000a2cf0 W _ZNSt6vectorIS_IS_I11tt_lens_ctxSaIS0_EESaIS2_EESaIS4_EEC1ERKS6_
00000000000a2cf0 W _ZNSt6vectorIS_IS_I11tt_lens_ctxSaIS0_EESaIS2_EESaIS4_EEC2ERKS6_
00000000000a29a0 W _ZNSt6vectorIS_IS_I11tt_lens_ctxSaIS0_EESaIS2_EESaIS4_EED1Ev
00000000000a29a0 W _ZNSt6vectorIS_IS_I11tt_lens_ctxSaIS0_EESaIS2_EESaIS4_EED2Ev
0000000000074dc0 W _ZNSt6vectorISt10unique_ptrI7CSocketSt14default_deleteIS1_EESaIS4_EE17_M_default_appendEm
0000000000081fd0 W _ZNSt6vectorISt5dequeIjSaIjEESaIS2_EE17_M_default_appendEm
0000000000091120 W _ZNSt6vectorISt5dequeIjSaIjEESaIS2_EED1Ev
0000000000091120 W _ZNSt6vectorISt5dequeIjSaIjEESaIS2_EED2Ev
000000000040b478 B _ZNSt7codecvtIDic11__mbstate_tE2idE
000000000013bb10 T _ZNSt7codecvtIDic11__mbstate_tED0Ev
000000000013ba10 T _ZNSt7codecvtIDic11__mbstate_tED1Ev
000000000013ba10 T _ZNSt7codecvtIDic11__mbstate_tED2Ev
000000000040b480 B _ZNSt7codecvtIDsc11__mbstate_tE2idE
000000000013ba90 T _ZNSt7codecvtIDsc11__mbstate_tED0Ev
000000000013b990 T _ZNSt7codecvtIDsc11__mbstate_tED1Ev
000000000013b990 T _ZNSt7codecvtIDsc11__mbstate_tED2Ev
                 U _ZNSt7codecvtIwc11__mbstate_tEC2Em
                 U _ZNSt7codecvtIwc11__mbstate_tED2Ev
00000000001037f0 W _ZNSt7__cxx1112basic_stringIcSt11char_traitsIcESaIcEE10_M_replaceEmmPKcm
0000000000103ab0 W _ZNSt7__cxx1112basic_stringIcSt11char_traitsIcESaIcEE12_M_constructIPcEEvT_S7_St20forward_iterator_tag
0000000000102c20 W _ZNSt7__cxx1112basic_stringIcSt11char_traitsIcESaIcEE12_M_constructIPKcEEvT_S8_St20forward_iterator_tag
000000000010ed60 W _ZNSt7__cxx1112basic_stringIcSt11char_traitsIcESaIcEE14_M_replace_auxEmmmc
00000000001018d0 W _ZNSt7__cxx1112basic_stringIcSt11char_traitsIcESaIcEE4swapERS4_
0000000000102a00 W _ZNSt7__cxx1112basic_stringIcSt11char_traitsIcESaIcEE6resizeEmc
0000000000102970 W _ZNSt7__cxx1112basic_stringIcSt11char_traitsIcESaIcEE9_M_appendEPKcm
0000000000102700 W _ZNSt7__cxx1112basic_stringIcSt11char_traitsIcESaIcEE9_M_assignERKS4_
00000000001027f0 W _ZNSt7__cxx1112basic_stringIcSt11char_traitsIcESaIcEE9_M_mutateEmmPKcm
000000000010f150 W _ZNSt7__cxx1112basic_stringIcSt11char_traitsIcESaIcEEC1IS3_EEPKcRKS3_
000000000010f150 W _ZNSt7__cxx1112basic_stringIcSt11char_traitsIcESaIcEEC2IS3_EEPKcRKS3_
0000000000112f80 W _ZNSt7__cxx1112basic_stringIwSt11char_traitsIwESaIwEE10_M_replaceEmmPKwm
0000000000112ea0 W _ZNSt7__cxx1112basic_stringIwSt11char_traitsIwESaIwEE6resizeEmw
0000000000112ce0 W _ZNSt7__cxx1112basic_stringIwSt11char_traitsIwESaIwEE9_M_createERmm
0000000000112d40 W _ZNSt7__cxx1112basic_stringIwSt11char_traitsIwESaIwEE9_M_mutateEmmPKwm
                 U _ZNSt8bad_castD2Ev
                 U _ZNSt8ios_base4InitC1Ev
                 U _ZNSt8ios_base4InitD1Ev
                 U _ZNSt8ios_baseC2Ev
                 U _ZNSt8ios_baseD2Ev
00000000000d13b0 W _ZNSt8_Rb_treeIjSt4pairIKjjESt10_Select1stIS2_ESt4lessIjESaIS2_EE24_M_get_insert_unique_posERS1_
00000000000d0dc0 W _ZNSt8_Rb_treeIjSt4pairIKjjESt10_Select1stIS2_ESt4lessIjESaIS2_EE8_M_eraseEPSt13_Rb_tree_nodeIS2_E
00000000000a4a20 W _ZNSt8_Rb_treeImSt4pairIKmmESt10_Select1stIS2_ESt4lessImESaIS2_EE24_M_get_insert_unique_posERS1_
0000000000074d20 W _ZNSt8_Rb_treeImSt4pairIKmmESt10_Select1stIS2_ESt4lessImESaIS2_EE8_M_eraseEPSt13_Rb_tree_nodeIS2_E
00000000000a4790 W _ZNSt8_Rb_treeImSt4pairIKmP10CBitVectorESt10_Select1stIS4_ESt4lessImESaIS4_EE17_M_emplace_uniqueIJS0_ImS3_EEEES0_ISt17_Rb_tree_iteratorIS4_EbEDpOT_
00000000000a4700 W _ZNSt8_Rb_treeImSt4pairIKmP10CBitVectorESt10_Select1stIS4_ESt4lessImESaIS4_EE24_M_get_insert_unique_posERS1_
00000000000a4840 W _ZNSt8_Rb_treeImSt4pairIKmP10CBitVectorESt10_Select1stIS4_ESt4lessImESaIS4_EE29_M_get_insert_hint_unique_posESt23_Rb_tree_const_iteratorIS4_ERS1_
0000000000074ce0 W _ZNSt8_Rb_treeImSt4pairIKmP10CBitVectorESt10_Select1stIS4_ESt4lessImESaIS4_EE8_M_eraseEPSt13_Rb_tree_nodeIS4_E
00000000000a4670 W _ZNSt8_Rb_treeImSt4pairIKmP14op_lut_precompESt10_Select1stIS4_ESt4lessImESaIS4_EE24_M_get_insert_unique_posERS1_
00000000000a4930 W _ZNSt8_Rb_treeImSt4pairIKmP14op_lut_precompESt10_Select1stIS4_ESt4lessImESaIS4_EE29_M_get_insert_hint_unique_posESt23_Rb_tree_const_iteratorIS4_ERS1_
0000000000074ca0 W _ZNSt8_Rb_treeImSt4pairIKmP14op_lut_precompESt10_Select1stIS4_ESt4lessImESaIS4_EE8_M_eraseEPSt13_Rb_tree_nodeIS4_E
00000000000a4ab0 W _ZNSt8_Rb_treeImSt4pairIKmSt6vectorIjSaIjEEESt10_Select1stIS5_ESt4lessImESaIS5_EE24_M_get_insert_unique_posERS1_
00000000000a4b40 W _ZNSt8_Rb_treeImSt4pairIKmSt6vectorIjSaIjEEESt10_Select1stIS5_ESt4lessImESaIS5_EE29_M_get_insert_hint_unique_posESt23_Rb_tree_const_iteratorIS5_ERS1_
0000000000074d60 W _ZNSt8_Rb_treeImSt4pairIKmSt6vectorIjSaIjEEESt10_Select1stIS5_ESt4lessImESaIS5_EE8_M_eraseEPSt13_Rb_tree_nodeIS5_E
00000000000e9930 W _ZNSt8_Rb_treeIPKN5boost6system14error_categoryESt4pairIKS4_St10unique_ptrINS1_6detail12std_categoryESt14default_deleteIS9_EEESt10_Select1stISD_ENS8_12cat_ptr_lessESaISD_EE16_M_insert_uniqueISD_EES5_ISt17_Rb_tree_iteratorISD_EbEOT_
00000000000e9870 W _ZNSt8_Rb_treeIPKN5boost6system14error_categoryESt4pairIKS4_St10unique_ptrINS1_6detail12std_categoryESt14default_deleteIS9_EEESt10_Select1stISD_ENS8_12cat_ptr_lessESaISD_EE8_M_eraseEPSt13_Rb_tree_nodeISD_E
                 U _ZNSt9bad_allocD2Ev
                 U _ZNSt9basic_iosIcSt11char_traitsIcEE4initEPSt15basic_streambufIcS1_E
                 U _ZNSt9basic_iosIcSt11char_traitsIcEE5clearESt12_Ios_Iostate
                 U _ZNSt9basic_iosIcSt11char_traitsIcEE5imbueERKSt6locale
                 U _ZNSt9exceptionD2Ev
                 U _Znwm
                 U _ZSt11_Hash_bytesPKvmm
000000000013f5a0 T _ZSt13get_terminatev
                 U _ZSt13set_terminatePFvvE
000000000013f640 T _ZSt14get_unexpectedv
                 U _ZSt14set_unexpectedPFvvE
                 U _ZSt16__ostream_insertIcSt11char_traitsIcEERSt13basic_ostreamIT_T0_ES6_PKS3_l
                 U _ZSt16__throw_bad_castv
                 U _ZSt17current_exceptionv
                 U _ZSt17rethrow_exceptionNSt15__exception_ptr13exception_ptrE
                 U _ZSt17__throw_bad_allocv
                 U _ZSt18_Rb_tree_decrementPSt18_Rb_tree_node_base
                 U _ZSt18_Rb_tree_incrementPSt18_Rb_tree_node_base
                 U _ZSt19__throw_logic_errorPKc
                 U _ZSt20__throw_length_errorPKc
000000000013b2d0 T _ZSt24__throw_out_of_range_fmtPKcz
                 U _ZSt25__throw_bad_function_callv
                 U _ZSt29_Rb_tree_insert_and_rebalancebPSt18_Rb_tree_node_baseS0_RS_
                 U _ZSt4cerr
                 U _ZSt4cout
                 U _ZSt4endlIcSt11char_traitsIcEERSt13basic_ostreamIT_T0_ES6_
                 U _ZSt7getlineIcSt11char_traitsIcESaIcEERSt13basic_istreamIT_T0_ES7_RSbIS4_S5_T1_ES4_
00000000000f4ae0 W _ZSt8_DestroyISt15_Deque_iteratorINSt10filesystem4pathERS2_PS2_EEvT_S6_
00000000001087f0 W _ZSt8_DestroyISt15_Deque_iteratorINSt10filesystem7__cxx114pathERS3_PS3_EEvT_S7_
                 U _ZSt9terminatev
                 U _ZSt9use_facetISt7codecvtIwc11__mbstate_tEERKT_RKSt6locale
                 U _ZStlsISt11char_traitsIcEERSt13basic_ostreamIcT_ES5_PKc
00000000000e39c0 W _ZThn16_N5boost10wrapexceptINS_4asio2ip16bad_address_castEED0Ev
00000000000e2ac0 W _ZThn16_N5boost10wrapexceptINS_4asio2ip16bad_address_castEED1Ev
00000000000e3bc0 W _ZThn16_N5boost10wrapexceptINS_4asio9execution12bad_executorEED0Ev
00000000000e21f0 W _ZThn16_N5boost10wrapexceptINS_4asio9execution12bad_executorEED1Ev
00000000000e3cc0 W _ZThn24_N5boost10wrapexceptINS_4asio21invalid_service_ownerEED0Ev
00000000000e2840 W _ZThn24_N5boost10wrapexceptINS_4asio21invalid_service_ownerEED1Ev
00000000000e3e40 W _ZThn24_N5boost10wrapexceptINS_4asio22service_already_existsEED0Ev
00000000000e2920 W _ZThn24_N5boost10wrapexceptINS_4asio22service_already_existsEED1Ev
00000000000e3fc0 W _ZThn48_N5boost10wrapexceptINS_6system12system_errorEED0Ev
00000000000e3690 W _ZThn48_N5boost10wrapexceptINS_6system12system_errorEED1Ev
00000000000e3d40 W _ZThn8_N5boost10wrapexceptINS_4asio21invalid_service_ownerEED0Ev
00000000000e27d0 W _ZThn8_N5boost10wrapexceptINS_4asio21invalid_service_ownerEED1Ev
00000000000e3ec0 W _ZThn8_N5boost10wrapexceptINS_4asio22service_already_existsEED0Ev
00000000000e2990 W _ZThn8_N5boost10wrapexceptINS_4asio22service_already_existsEED1Ev
00000000000e3a40 W _ZThn8_N5boost10wrapexceptINS_4asio2ip16bad_address_castEED0Ev
00000000000e2b30 W _ZThn8_N5boost10wrapexceptINS_4asio2ip16bad_address_castEED1Ev
00000000000e3b40 W _ZThn8_N5boost10wrapexceptINS_4asio9execution12bad_executorEED0Ev
00000000000e2260 W _ZThn8_N5boost10wrapexceptINS_4asio9execution12bad_executorEED1Ev
00000000000e4060 W _ZThn8_N5boost10wrapexceptINS_6system12system_errorEED0Ev
00000000000e3720 W _ZThn8_N5boost10wrapexceptINS_6system12system_errorEED1Ev
0000000000379e50 V _ZTI10ABYCircuit
000000000037a798 V _ZTI10arithshare
000000000037cc28 V _ZTI10NaorPinkas
000000000037a868 V _ZTI10XORMasking
000000000037ae70 V _ZTI10YaoKeyXXLT
000000000037ae88 V _ZTI10YaoSharing
000000000037a9f8 V _ZTI11BoolSharing
000000000037b5a8 V _ZTI11prime_field
0000000000379e88 V _ZTI12ArithSharingIhE
0000000000379eb8 V _ZTI12ArithSharingIjE
0000000000379ed0 V _ZTI12ArithSharingImE
0000000000379ea0 V _ZTI12ArithSharingItE
000000000037b408 V _ZTI12ecc_brickexp
000000000037b5f0 V _ZTI12gmp_brickexp
000000000037cb58 V _ZTI12IKNPOTExtRec
000000000037cbe0 V _ZTI12IKNPOTExtSnd
000000000037a880 V _ZTI14ArithMTMaskingIhE
000000000037a8b0 V _ZTI14ArithMTMaskingIjE
000000000037a8c8 V _ZTI14ArithMTMaskingImE
000000000037a898 V _ZTI14ArithMTMaskingItE
000000000037b0e0 V _ZTI14BooleanCircuit
000000000037a858 V _ZTI15MaskingFunction
000000000037ac60 V _ZTI16YaoClientSharing
000000000037ad30 V _ZTI16YaoServerSharing
000000000037a538 V _ZTI17ArithmeticCircuit
000000000037b3a0 V _ZTI2fe
000000000037b390 V _ZTI3num
000000000037b0b0 V _ZTI4FP64
000000000037a430 V _ZTI5OTExt
000000000037a770 V _ZTI5share
000000000037cb70 V _ZTI6BaseOT
000000000037b3f0 V _ZTI6ecc_fe
000000000037b080 V _ZTI6FPType
000000000037b5c0 V _ZTI6gmp_fe
000000000037b0c8 V _ZTI6UINT32
000000000037ae00 V _ZTI6YaoKey
0000000000379e60 V _ZTI7Circuit
000000000037c840 V _ZTI7CThread
000000000037b3d8 V _ZTI7ecc_num
000000000037b5d8 V _ZTI7gmp_num
000000000037aac8 V _ZTI7Sharing
000000000037b3b0 V _ZTI8brickexp
000000000037b070 V _ZTI8ConvType
000000000037a458 V _ZTI8OTExtRec
000000000037a440 V _ZTI8OTExtSnd
000000000037ab90 V _ZTI8SetupLUT
000000000037b098 V _ZTI8UINTType
000000000037ae40 V _ZTI8YaoKeyLT
000000000037ae28 V _ZTI8YaoKeyMT
000000000037ae10 V _ZTI8YaoKeyST
000000000037a780 V _ZTI9boolshare
000000000037b3c0 V _ZTI9ecc_field
000000000037b380 V _ZTI9pk_crypto
000000000037b790 V _ZTI9RcvThread
000000000037b7d0 V _ZTI9SndThread
000000000037ae58 V _ZTI9YaoKeyXLT
000000000037bbc0 V _ZTIN5boost10wrapexceptINS_4asio21invalid_service_ownerEEE
000000000037bc08 V _ZTIN5boost10wrapexceptINS_4asio22service_already_existsEEE
000000000037bc68 V _ZTIN5boost10wrapexceptINS_4asio2ip16bad_address_castEEE
000000000037bb30 V _ZTIN5boost10wrapexceptINS_4asio9execution12bad_executorEEE
000000000037bb78 V _ZTIN5boost10wrapexceptINS_6system12system_errorEEE
000000000037b8b0 V _ZTIN5boost16exception_detail10clone_baseE
000000000037bd10 V _ZTIN5boost4asio10io_context19basic_executor_typeISaIvELj0EEE
000000000037bd60 V _ZTIN5boost4asio10io_context19basic_executor_typeISaIvELj4EEE
000000000037b990 V _ZTIN5boost4asio17execution_context7serviceE
000000000037b888 V _ZTIN5boost4asio19multiple_exceptionsE
000000000037b9d0 V _ZTIN5boost4asio21invalid_service_ownerE
000000000037b9b8 V _ZTIN5boost4asio22service_already_existsE
000000000037ba78 V _ZTIN5boost4asio2ip16bad_address_castE
000000000037b978 V _ZTIN5boost4asio5error6detail13misc_categoryE
000000000037b948 V _ZTIN5boost4asio5error6detail14netdb_categoryE
000000000037b960 V _ZTIN5boost4asio5error6detail17addrinfo_categoryE
000000000037b850 V _ZTIN5boost4asio6detail11noncopyableE
000000000037bc50 V _ZTIN5boost4asio6detail12posix_thread4funcINS1_9scheduler15thread_functionEEE
000000000037b9e8 V _ZTIN5boost4asio6detail12posix_thread9func_baseE
000000000037ba60 V _ZTIN5boost4asio6detail13epoll_reactorE
000000000037b840 V _ZTIN5boost4asio6detail14thread_contextE
000000000037bcc0 V _ZTIN5boost4asio6detail14typeid_wrapperINS1_13epoll_reactorEEE
000000000037bd38 V _ZTIN5boost4asio6detail14typeid_wrapperINS1_16resolver_serviceINS0_2ip3tcpEEEEE
000000000037bd00 V _ZTIN5boost4asio6detail14typeid_wrapperINS1_23reactive_socket_serviceINS0_2ip3tcpEEEEE
000000000037bcb0 V _ZTIN5boost4asio6detail14typeid_wrapperINS1_9schedulerEEE
000000000037b860 V _ZTIN5boost4asio6detail15io_context_bitsE
000000000037baf8 V _ZTIN5boost4asio6detail16resolver_serviceINS0_2ip3tcpEEE
000000000037b810 V _ZTIN5boost4asio6detail21resolver_service_baseE
000000000037baa8 V _ZTIN5boost4asio6detail23reactive_socket_serviceINS0_2ip3tcpEEE
000000000037b830 V _ZTIN5boost4asio6detail28reactive_socket_service_baseE
000000000037ba48 V _ZTIN5boost4asio6detail30execution_context_service_baseINS1_13epoll_reactorEEE
000000000037bae0 V _ZTIN5boost4asio6detail30execution_context_service_baseINS1_16resolver_serviceINS0_2ip3tcpEEEEE
000000000037ba90 V _ZTIN5boost4asio6detail30execution_context_service_baseINS1_23reactive_socket_serviceINS0_2ip3tcpEEEEE
000000000037b9f8 V _ZTIN5boost4asio6detail30execution_context_service_baseINS1_9schedulerEEE
000000000037ba10 V _ZTIN5boost4asio6detail9schedulerE
000000000037b8c0 V _ZTIN5boost4asio9execution12bad_executorE
000000000037b930 V _ZTIN5boost6system12system_errorE
000000000037b8d8 V _ZTIN5boost6system14error_categoryE
000000000037b918 V _ZTIN5boost6system6detail12std_categoryE
000000000037b900 V _ZTIN5boost6system6detail21system_error_categoryE
000000000037b8e8 V _ZTIN5boost6system6detail22generic_error_categoryE
000000000037b8a0 V _ZTIN5boost9exceptionE
0000000000379e70 V _ZTIN8ABYParty18CPartyWorkerThreadE
000000000037a470 V _ZTIN8ABYSetup13CWorkerThreadE
000000000037cc70 V _ZTIN8OTExtRec16OTReceiverThreadE
000000000037ccb0 V _ZTIN8OTExtSnd14OTSenderThreadE
000000000037c940 V _ZTIN9__gnu_cxx13stdio_filebufIcSt11char_traitsIcEEE
000000000037c890 V _ZTINSt10filesystem16filesystem_errorE
000000000037c9d8 V _ZTINSt10filesystem7__cxx1116filesystem_errorE
000000000037ccf0 V _ZTINSt3_V214error_categoryE
                 U _ZTINSt6locale5facetE
000000000037d420 V _ZTINSt6thread6_StateE
                 U _ZTISt11logic_error
000000000037b820 V _ZTISt11_Mutex_baseILN9__gnu_cxx12_Lock_policyE2EE
000000000037c8a8 V _ZTISt12codecvt_utf8IwLm1114111ELSt12codecvt_mode0EE
                 U _ZTISt12out_of_range
                 U _ZTISt12system_error
                 U _ZTISt13basic_filebufIcSt11char_traitsIcEE
                 U _ZTISt13runtime_error
000000000037bd48 V _ZTISt15_Sp_counted_ptrIPSt6vectorIN5boost4asio2ip20basic_resolver_entryINS3_3tcpEEESaIS6_EELN9__gnu_cxx12_Lock_policyE2EE
000000000037b870 V _ZTISt16_Sp_counted_baseILN9__gnu_cxx12_Lock_policyE2EE
000000000037cf18 V _ZTISt19__codecvt_utf8_baseIDiE
000000000037ced0 V _ZTISt19__codecvt_utf8_baseIDsE
000000000037cf60 V _ZTISt19__codecvt_utf8_baseIwE
000000000037bcd0 V _ZTISt19_Sp_counted_deleterIPvN5boost4asio6detail10socket_ops12noop_deleterESaIvELN9__gnu_cxx12_Lock_policyE2EE
000000000037d4d8 V _ZTISt20bad_array_new_length
000000000037cf30 V _ZTISt20__codecvt_utf16_baseIDiE
000000000037cee8 V _ZTISt20__codecvt_utf16_baseIDsE
000000000037cf78 V _ZTISt20__codecvt_utf16_baseIwE
000000000037bce8 V _ZTISt23_Sp_counted_ptr_inplaceIN5boost4asio10io_contextESaIS2_ELN9__gnu_cxx12_Lock_policyE2EE
000000000037ca30 V _ZTISt23_Sp_counted_ptr_inplaceINSt10filesystem28recursive_directory_iterator10_Dir_stackESaIS2_ELN9__gnu_cxx12_Lock_policyE2EE
000000000037ca18 V _ZTISt23_Sp_counted_ptr_inplaceINSt10filesystem4_DirESaIS1_ELN9__gnu_cxx12_Lock_policyE2EE
000000000037cad0 V _ZTISt23_Sp_counted_ptr_inplaceINSt10filesystem7__cxx1128recursive_directory_iterator10_Dir_stackESaIS3_ELN9__gnu_cxx12_Lock_policyE2EE
000000000037cab8 V _ZTISt23_Sp_counted_ptr_inplaceINSt10filesystem7__cxx114_DirESaIS2_ELN9__gnu_cxx12_Lock_policyE2EE
000000000037cf48 V _ZTISt25__codecvt_utf8_utf16_baseIDiE
000000000037cf00 V _ZTISt25__codecvt_utf8_utf16_baseIDsE
000000000037cf90 V _ZTISt25__codecvt_utf8_utf16_baseIwE
000000000037ceb8 V _ZTISt7codecvtIDic11__mbstate_tE
000000000037ce68 V _ZTISt7codecvtIDsc11__mbstate_tE
                 U _ZTISt7codecvtIwc11__mbstate_tE
                 U _ZTISt8bad_cast
                 U _ZTISt9bad_alloc
                 U _ZTISt9exception
                 U _ZTIv
000000000013fe78 V _ZTS10ABYCircuit
0000000000140840 V _ZTS10arithshare
0000000000145b30 V _ZTS10NaorPinkas
0000000000140978 V _ZTS10XORMasking
00000000001417c8 V _ZTS10YaoKeyXXLT
00000000001417d8 V _ZTS10YaoSharing
0000000000140db0 V _ZTS11BoolSharing
0000000000142cc8 V _ZTS11prime_field
000000000013fec0 V _ZTS12ArithSharingIhE
000000000013ff00 V _ZTS12ArithSharingIjE
000000000013ff20 V _ZTS12ArithSharingImE
000000000013fee0 V _ZTS12ArithSharingItE
0000000000142cb8 V _ZTS12ecc_brickexp
0000000000142cf0 V _ZTS12gmp_brickexp
0000000000145b08 V _ZTS12IKNPOTExtRec
0000000000145b20 V _ZTS12IKNPOTExtSnd
0000000000140990 V _ZTS14ArithMTMaskingIhE
00000000001409d0 V _ZTS14ArithMTMaskingIjE
00000000001409f0 V _ZTS14ArithMTMaskingImE
00000000001409b0 V _ZTS14ArithMTMaskingItE
00000000001427d0 V _ZTS14BooleanCircuit
0000000000140960 V _ZTS15MaskingFunction
0000000000141440 V _ZTS16YaoClientSharing
0000000000141700 V _ZTS16YaoServerSharing
0000000000140770 V _ZTS17ArithmeticCircuit
0000000000142c78 V _ZTS2fe
0000000000142c73 V _ZTS3num
00000000001427c2 V _ZTS4FP64
000000000013ffe0 V _ZTS5OTExt
0000000000140824 V _ZTS5share
0000000000145b18 V _ZTS6BaseOT
0000000000142cb0 V _ZTS6ecc_fe
00000000001427b0 V _ZTS6FPType
0000000000142cd8 V _ZTS6gmp_fe
00000000001427c8 V _ZTS6UINT32
0000000000141780 V _ZTS6YaoKey
000000000013fe88 V _ZTS7Circuit
0000000000145000 V _ZTS7CThread
0000000000142ca0 V _ZTS7ecc_num
0000000000142ce0 V _ZTS7gmp_num
0000000000140ed0 V _ZTS7Sharing
0000000000142c80 V _ZTS8brickexp
00000000001427a0 V _ZTS8ConvType
000000000013fff8 V _ZTS8OTExtRec
000000000013ffe8 V _ZTS8OTExtSnd
0000000000141120 V _ZTS8SetupLUT
00000000001427b8 V _ZTS8UINTType
00000000001417a8 V _ZTS8YaoKeyLT
0000000000141798 V _ZTS8YaoKeyMT
0000000000141788 V _ZTS8YaoKeyST
0000000000140830 V _ZTS9boolshare
0000000000142c90 V _ZTS9ecc_field
0000000000142c68 V _ZTS9pk_crypto
0000000000143cb0 V _ZTS9RcvThread
0000000000143cc0 V _ZTS9SndThread
00000000001417b8 V _ZTS9YaoKeyXLT
0000000000144a40 V _ZTSN5boost10wrapexceptINS_4asio21invalid_service_ownerEEE
0000000000144a80 V _ZTSN5boost10wrapexceptINS_4asio22service_already_existsEEE
0000000000144b20 V _ZTSN5boost10wrapexceptINS_4asio2ip16bad_address_castEEE
00000000001449c0 V _ZTSN5boost10wrapexceptINS_4asio9execution12bad_executorEEE
0000000000144a00 V _ZTSN5boost10wrapexceptINS_6system12system_errorEEE
00000000001443c0 V _ZTSN5boost16exception_detail10clone_baseE
0000000000144d20 V _ZTSN5boost4asio10io_context19basic_executor_typeISaIvELj0EEE
0000000000144e40 V _ZTSN5boost4asio10io_context19basic_executor_typeISaIvELj4EEE
0000000000144600 V _ZTSN5boost4asio17execution_context7serviceE
0000000000144360 V _ZTSN5boost4asio19multiple_exceptionsE
0000000000144680 V _ZTSN5boost4asio21invalid_service_ownerE
0000000000144640 V _ZTSN5boost4asio22service_already_existsE
0000000000144820 V _ZTSN5boost4asio2ip16bad_address_castE
00000000001445c0 V _ZTSN5boost4asio5error6detail13misc_categoryE
0000000000144540 V _ZTSN5boost4asio5error6detail14netdb_categoryE
0000000000144580 V _ZTSN5boost4asio5error6detail17addrinfo_categoryE
00000000001442e0 V _ZTSN5boost4asio6detail10socket_ops12noop_deleterE
0000000000144240 V _ZTSN5boost4asio6detail11noncopyableE
0000000000144ac0 V _ZTSN5boost4asio6detail12posix_thread4funcINS1_9scheduler15thread_functionEEE
00000000001446c0 V _ZTSN5boost4asio6detail12posix_thread9func_baseE
00000000001447e0 V _ZTSN5boost4asio6detail13epoll_reactorE
0000000000144200 V _ZTSN5boost4asio6detail14thread_contextE
0000000000144ba0 V _ZTSN5boost4asio6detail14typeid_wrapperINS1_13epoll_reactorEEE
0000000000144d60 V _ZTSN5boost4asio6detail14typeid_wrapperINS1_16resolver_serviceINS0_2ip3tcpEEEEE
0000000000144cc0 V _ZTSN5boost4asio6detail14typeid_wrapperINS1_23reactive_socket_serviceINS0_2ip3tcpEEEEE
0000000000144b60 V _ZTSN5boost4asio6detail14typeid_wrapperINS1_9schedulerEEE
0000000000144280 V _ZTSN5boost4asio6detail15io_context_bitsE
0000000000144980 V _ZTSN5boost4asio6detail16resolver_serviceINS0_2ip3tcpEEE
0000000000144140 V _ZTSN5boost4asio6detail21resolver_service_baseE
00000000001448e0 V _ZTSN5boost4asio6detail23reactive_socket_serviceINS0_2ip3tcpEEE
00000000001441c0 V _ZTSN5boost4asio6detail28reactive_socket_service_baseE
0000000000144780 V _ZTSN5boost4asio6detail30execution_context_service_baseINS1_13epoll_reactorEEE
0000000000144920 V _ZTSN5boost4asio6detail30execution_context_service_baseINS1_16resolver_serviceINS0_2ip3tcpEEEEE
0000000000144860 V _ZTSN5boost4asio6detail30execution_context_service_baseINS1_23reactive_socket_serviceINS0_2ip3tcpEEEEE
0000000000144700 V _ZTSN5boost4asio6detail30execution_context_service_baseINS1_9schedulerEEE
0000000000144750 V _ZTSN5boost4asio6detail9schedulerE
0000000000144400 V _ZTSN5boost4asio9execution12bad_executorE
0000000000144510 V _ZTSN5boost6system12system_errorE
0000000000144440 V _ZTSN5boost6system14error_categoryE
00000000001444e0 V _ZTSN5boost6system6detail12std_categoryE
00000000001444a0 V _ZTSN5boost6system6detail21system_error_categoryE
0000000000144460 V _ZTSN5boost6system6detail22generic_error_categoryE
0000000000144390 V _ZTSN5boost9exceptionE
000000000013fea0 V _ZTSN8ABYParty18CPartyWorkerThreadE
0000000000140010 V _ZTSN8ABYSetup13CWorkerThreadE
0000000000145c10 V _ZTSN8OTExtRec16OTReceiverThreadE
0000000000145cc0 V _ZTSN8OTExtSnd14OTSenderThreadE
0000000000145700 V _ZTSN9__gnu_cxx13stdio_filebufIcSt11char_traitsIcEEE
0000000000145600 V _ZTSNSt10filesystem16filesystem_errorE
0000000000145740 V _ZTSNSt10filesystem7__cxx1116filesystem_errorE
00000000001472a0 V _ZTSNSt6thread6_StateE
0000000000144180 V _ZTSSt11_Mutex_baseILN9__gnu_cxx12_Lock_policyE2EE
0000000000145640 V _ZTSSt12codecvt_utf8IwLm1114111ELSt12codecvt_mode0EE
0000000000144dc0 V _ZTSSt15_Sp_counted_ptrIPSt6vectorIN5boost4asio2ip20basic_resolver_entryINS3_3tcpEEESaIS6_EELN9__gnu_cxx12_Lock_policyE2EE
0000000000144320 V _ZTSSt16_Sp_counted_baseILN9__gnu_cxx12_Lock_policyE2EE
0000000000147130 V _ZTSSt19__codecvt_utf8_baseIDiE
00000000001470b0 V _ZTSSt19__codecvt_utf8_baseIDsE
00000000001471b0 V _ZTSSt19__codecvt_utf8_baseIwE
0000000000144be0 V _ZTSSt19_Sp_counted_deleterIPvN5boost4asio6detail10socket_ops12noop_deleterESaIvELN9__gnu_cxx12_Lock_policyE2EE
00000000001442b0 V _ZTSSt19_Sp_make_shared_tag
00000000001473b0 V _ZTSSt20bad_array_new_length
0000000000147150 V _ZTSSt20__codecvt_utf16_baseIDiE
00000000001470d0 V _ZTSSt20__codecvt_utf16_baseIDsE
00000000001471d0 V _ZTSSt20__codecvt_utf16_baseIwE
0000000000144c60 V _ZTSSt23_Sp_counted_ptr_inplaceIN5boost4asio10io_contextESaIS2_ELN9__gnu_cxx12_Lock_policyE2EE
0000000000145980 V _ZTSSt23_Sp_counted_ptr_inplaceINSt10filesystem28recursive_directory_iterator10_Dir_stackESaIS2_ELN9__gnu_cxx12_Lock_policyE2EE
0000000000145920 V _ZTSSt23_Sp_counted_ptr_inplaceINSt10filesystem4_DirESaIS1_ELN9__gnu_cxx12_Lock_policyE2EE
0000000000145a80 V _ZTSSt23_Sp_counted_ptr_inplaceINSt10filesystem7__cxx1128recursive_directory_iterator10_Dir_stackESaIS3_ELN9__gnu_cxx12_Lock_policyE2EE
0000000000145a20 V _ZTSSt23_Sp_counted_ptr_inplaceINSt10filesystem7__cxx114_DirESaIS2_ELN9__gnu_cxx12_Lock_policyE2EE
0000000000147180 V _ZTSSt25__codecvt_utf8_utf16_baseIDiE
0000000000147100 V _ZTSSt25__codecvt_utf8_utf16_baseIDsE
0000000000147200 V _ZTSSt25__codecvt_utf8_utf16_baseIwE
0000000000147090 V _ZTSSt7codecvtIDic11__mbstate_tE
0000000000147030 V _ZTSSt7codecvtIDsc11__mbstate_tE
                 U _ZTTSt14basic_ifstreamIcSt11char_traitsIcEE
                 U _ZTTSt14basic_ofstreamIcSt11char_traitsIcEE
                 U _ZTTSt19basic_ostringstreamIcSt11char_traitsIcESaIcEE
0000000000379ee8 V _ZTV10ABYCircuit
000000000037a820 V _ZTV10arithshare
000000000037cc40 V _ZTV10NaorPinkas
000000000037a8e0 V _ZTV10XORMasking
000000000037af80 V _ZTV10YaoKeyXXLT
000000000037afb8 V _ZTV10YaoSharing
000000000037aa10 V _ZTV11BoolSharing
000000000037b6f0 V _ZTV11prime_field
000000000037a128 V _ZTV12ArithSharingIhE
000000000037a298 V _ZTV12ArithSharingIjE
000000000037a350 V _ZTV12ArithSharingImE
000000000037a1e0 V _ZTV12ArithSharingItE
000000000037b580 V _ZTV12ecc_brickexp
000000000037b768 V _ZTV12gmp_brickexp
000000000037cbb0 V _ZTV12IKNPOTExtRec
000000000037cbf8 V _ZTV12IKNPOTExtSnd
000000000037a918 V _ZTV14ArithMTMaskingIhE
000000000037a988 V _ZTV14ArithMTMaskingIjE
000000000037a9c0 V _ZTV14ArithMTMaskingImE
000000000037a950 V _ZTV14ArithMTMaskingItE
000000000037b160 V _ZTV14BooleanCircuit
000000000037ac78 V _ZTV16YaoClientSharing
000000000037ad48 V _ZTV16YaoServerSharing
000000000037a550 V _ZTV17ArithmeticCircuit
000000000037b108 V _ZTV4FP64
000000000037a488 V _ZTV5OTExt
000000000037a7b0 V _ZTV5share
000000000037cb80 V _ZTV6BaseOT
000000000037b498 V _ZTV6ecc_fe
000000000037b678 V _ZTV6gmp_fe
000000000037b140 V _ZTV6UINT32
0000000000379f08 V _ZTV7Circuit
000000000037c868 V _ZTV7CThread
000000000037b510 V _ZTV7ecc_num
000000000037b608 V _ZTV7gmp_num
000000000037aad8 V _ZTV7Sharing
000000000037a4e0 V _ZTV8OTExtRec
000000000037a4b0 V _ZTV8OTExtSnd
000000000037aba8 V _ZTV8SetupLUT
000000000037af10 V _ZTV8YaoKeyLT
000000000037aed8 V _ZTV8YaoKeyMT
000000000037aea0 V _ZTV8YaoKeyST
000000000037a7e8 V _ZTV9boolshare
000000000037b420 V _ZTV9ecc_field
000000000037b7a8 V _ZTV9RcvThread
000000000037b7e8 V _ZTV9SndThread
000000000037af48 V _ZTV9YaoKeyXLT
                 U _ZTVN10__cxxabiv117__class_type_infoE
                 U _ZTVN10__cxxabiv120__si_class_type_infoE
                 U _ZTVN10__cxxabiv121__vmi_class_type_infoE
000000000037c2d8 V _ZTVN5boost10wrapexceptINS_4asio21invalid_service_ownerEEE
000000000037c350 V _ZTVN5boost10wrapexceptINS_4asio22service_already_existsEEE
000000000037c3f0 V _ZTVN5boost10wrapexceptINS_4asio2ip16bad_address_castEEE
000000000037c1e8 V _ZTVN5boost10wrapexceptINS_4asio9execution12bad_executorEEE
000000000037c260 V _ZTVN5boost10wrapexceptINS_6system12system_errorEEE
000000000037bdd0 V _ZTVN5boost16exception_detail10clone_baseE
000000000037bd88 V _ZTVN5boost4asio19multiple_exceptionsE
000000000037c078 V _ZTVN5boost4asio21invalid_service_ownerE
000000000037c050 V _ZTVN5boost4asio22service_already_existsE
000000000037c100 V _ZTVN5boost4asio2ip16bad_address_castE
000000000037c008 V _ZTVN5boost4asio5error6detail13misc_categoryE
000000000037bf78 V _ZTVN5boost4asio5error6detail14netdb_categoryE
000000000037bfc0 V _ZTVN5boost4asio5error6detail17addrinfo_categoryE
000000000037c3c8 V _ZTVN5boost4asio6detail12posix_thread4funcINS1_9scheduler15thread_functionEEE
000000000037c0d0 V _ZTVN5boost4asio6detail13epoll_reactorE
000000000037c1b8 V _ZTVN5boost4asio6detail16resolver_serviceINS0_2ip3tcpEEE
000000000037c158 V _ZTVN5boost4asio6detail23reactive_socket_serviceINS0_2ip3tcpEEE
000000000037c188 V _ZTVN5boost4asio6detail30execution_context_service_baseINS1_16resolver_serviceINS0_2ip3tcpEEEEE
000000000037c128 V _ZTVN5boost4asio6detail30execution_context_service_baseINS1_23reactive_socket_serviceINS0_2ip3tcpEEEEE
000000000037c0a0 V _ZTVN5boost4asio6detail9schedulerE
000000000037be00 V _ZTVN5boost4asio9execution12bad_executorE
000000000037bf50 V _ZTVN5boost6system12system_errorE
000000000037be70 V _ZTVN5boost6system14error_categoryE
000000000037beb8 V _ZTVN5boost6system6detail12std_categoryE
000000000037bf08 V _ZTVN5boost6system6detail21system_error_categoryE
000000000037be28 V _ZTVN5boost6system6detail22generic_error_categoryE
000000000037bdb0 V _ZTVN5boost9exceptionE
000000000037a408 V _ZTVN8ABYParty18CPartyWorkerThreadE
000000000037a510 V _ZTVN8ABYSetup13CWorkerThreadE
000000000037cc88 V _ZTVN8OTExtRec16OTReceiverThreadE
000000000037ccc8 V _ZTVN8OTExtSnd14OTSenderThreadE
000000000037c958 V _ZTVN9__gnu_cxx13stdio_filebufIcSt11char_traitsIcEEE
000000000037c8c0 V _ZTVNSt10filesystem16filesystem_errorE
000000000037c9f0 V _ZTVNSt10filesystem7__cxx1116filesystem_errorE
000000000037cdd0 V _ZTVNSt3_V214error_categoryE
000000000037d430 V _ZTVNSt6thread6_StateE
                 U _ZTVSo
                 U _ZTVSt11logic_error
                 U _ZTVSt11range_error
000000000037c8e8 V _ZTVSt12codecvt_utf8IwLm1114111ELSt12codecvt_mode0EE
                 U _ZTVSt12domain_error
                 U _ZTVSt12length_error
                 U _ZTVSt12out_of_range
                 U _ZTVSt12system_error
                 U _ZTVSt13basic_filebufIcSt11char_traitsIcEE
                 U _ZTVSt13runtime_error
                 U _ZTVSt14basic_ifstreamIcSt11char_traitsIcEE
                 U _ZTVSt14basic_ofstreamIcSt11char_traitsIcEE
                 U _ZTVSt14overflow_error
                 U _ZTVSt15basic_streambufIcSt11char_traitsIcEE
                 U _ZTVSt15basic_stringbufIcSt11char_traitsIcESaIcEE
000000000037c4d8 V _ZTVSt15_Sp_counted_ptrIPSt6vectorIN5boost4asio2ip20basic_resolver_entryINS3_3tcpEEESaIS6_EELN9__gnu_cxx12_Lock_policyE2EE
                 U _ZTVSt15underflow_error
                 U _ZTVSt16invalid_argument
                 U _ZTVSt19basic_ostringstreamIcSt11char_traitsIcESaIcEE
000000000037d160 V _ZTVSt19__codecvt_utf8_baseIDiE
000000000037d108 V _ZTVSt19__codecvt_utf8_baseIDsE
000000000037d1b8 V _ZTVSt19__codecvt_utf8_baseIwE
000000000037c468 V _ZTVSt19_Sp_counted_deleterIPvN5boost4asio6detail10socket_ops12noop_deleterESaIvELN9__gnu_cxx12_Lock_policyE2EE
000000000037d4f0 V _ZTVSt20bad_array_new_length
000000000037d268 V _ZTVSt20__codecvt_utf16_baseIDiE
000000000037d210 V _ZTVSt20__codecvt_utf16_baseIDsE
000000000037d2c0 V _ZTVSt20__codecvt_utf16_baseIwE
000000000037c4a0 V _ZTVSt23_Sp_counted_ptr_inplaceIN5boost4asio10io_contextESaIS2_ELN9__gnu_cxx12_Lock_policyE2EE
000000000037ca80 V _ZTVSt23_Sp_counted_ptr_inplaceINSt10filesystem28recursive_directory_iterator10_Dir_stackESaIS2_ELN9__gnu_cxx12_Lock_policyE2EE
000000000037ca48 V _ZTVSt23_Sp_counted_ptr_inplaceINSt10filesystem4_DirESaIS1_ELN9__gnu_cxx12_Lock_policyE2EE
000000000037cb20 V _ZTVSt23_Sp_counted_ptr_inplaceINSt10filesystem7__cxx1128recursive_directory_iterator10_Dir_stackESaIS3_ELN9__gnu_cxx12_Lock_policyE2EE
000000000037cae8 V _ZTVSt23_Sp_counted_ptr_inplaceINSt10filesystem7__cxx114_DirESaIS2_ELN9__gnu_cxx12_Lock_policyE2EE
000000000037d370 V _ZTVSt25__codecvt_utf8_utf16_baseIDiE
000000000037d318 V _ZTVSt25__codecvt_utf8_utf16_baseIDsE
000000000037d3c8 V _ZTVSt25__codecvt_utf8_utf16_baseIwE
000000000037d0b0 V _ZTVSt7codecvtIDic11__mbstate_tE
000000000037d058 V _ZTVSt7codecvtIDsc11__mbstate_tE
                 U _ZTVSt9basic_iosIcSt11char_traitsIcEE
0000000000380f70 u _ZZN5boost4asio5error17get_misc_categoryEvE8instance
0000000000380f90 u _ZZN5boost4asio5error18get_netdb_categoryEvE8instance
0000000000380f80 u _ZZN5boost4asio5error21get_addrinfo_categoryEvE8instance
0000000000144e80 u _ZZN5boost4asio6detail13epoll_reactor16descriptor_state10perform_ioEjE4flag
000000000037c720 u _ZZN5boost4asio9execution12any_executorIJNS1_12context_as_tIRNS0_17execution_contextEEENS1_6detail8blocking7never_tILi0EEENS1_11prefer_onlyINS8_10possibly_tILi0EEEEENSB_INS7_16outstanding_work9tracked_tILi0EEEEENSB_INSF_11untracked_tILi0EEEEENSB_INS7_12relationship6fork_tILi0EEEEENSB_INSM_14continuation_tILi0EEEEEEE14prop_fns_tableINS0_10io_context19basic_executor_typeISaIvELj0EEEEEPKNS7_17any_executor_base8prop_fnsIST_EEvE3fns
000000000037c560 u _ZZN5boost4asio9execution12any_executorIJNS1_12context_as_tIRNS0_17execution_contextEEENS1_6detail8blocking7never_tILi0EEENS1_11prefer_onlyINS8_10possibly_tILi0EEEEENSB_INS7_16outstanding_work9tracked_tILi0EEEEENSB_INSF_11untracked_tILi0EEEEENSB_INS7_12relationship6fork_tILi0EEEEENSB_INSM_14continuation_tILi0EEEEEEE14prop_fns_tableINS0_10io_context19basic_executor_typeISaIvELj4EEEEEPKNS7_17any_executor_base8prop_fnsIST_EEvE3fns
000000000037c620 u _ZZN5boost4asio9execution12any_executorIJNS1_12context_as_tIRNS0_17execution_contextEEENS1_6detail8blocking7never_tILi0EEENS1_11prefer_onlyINS8_10possibly_tILi0EEEEENSB_INS7_16outstanding_work9tracked_tILi0EEEEENSB_INSF_11untracked_tILi0EEEEENSB_INS7_12relationship6fork_tILi0EEEEENSB_INSM_14continuation_tILi0EEEEEEE14prop_fns_tableIvEEPKNS7_17any_executor_base8prop_fnsIST_EEvE3fns
000000000037c6e0 u _ZZN5boost4asio9execution6detail17any_executor_base16object_fns_tableINS0_10io_context19basic_executor_typeISaIvELj0EEEEEPKNS3_10object_fnsEPNSt9enable_ifIXaantsrSt7is_sameIT_vE5valuentsrSD_ISE_St10shared_ptrIvEE5valueEvE4typeEE3fns
000000000037c520 u _ZZN5boost4asio9execution6detail17any_executor_base16object_fns_tableINS0_10io_context19basic_executor_typeISaIvELj4EEEEEPKNS3_10object_fnsEPNSt9enable_ifIXaantsrSt7is_sameIT_vE5valuentsrSD_ISE_St10shared_ptrIvEE5valueEvE4typeEE3fns
000000000037c800 u _ZZN5boost4asio9execution6detail17any_executor_base16object_fns_tableIvEEPKNS3_10object_fnsEPNSt9enable_ifIXsrSt7is_sameIT_vE5valueEvE4typeEE3fns
000000000037c700 u _ZZN5boost4asio9execution6detail17any_executor_base16target_fns_tableINS0_10io_context19basic_executor_typeISaIvELj0EEEEEPKNS3_10target_fnsEbPNSt9enable_ifIXntsrSt7is_sameIT_vE5valueEvE4typeEE16fns_with_execute
000000000037c540 u _ZZN5boost4asio9execution6detail17any_executor_base16target_fns_tableINS0_10io_context19basic_executor_typeISaIvELj4EEEEEPKNS3_10target_fnsEbPNSt9enable_ifIXntsrSt7is_sameIT_vE5valueEvE4typeEE16fns_with_execute
000000000037c7e0 u _ZZN5boost4asio9execution6detail17any_executor_base16target_fns_tableIvEEPKNS3_10target_fnsEPNSt9enable_ifIXsrSt7is_sameIT_vE5valueEvE4typeEE3fns
0000000000383d00 u _ZZN5boost6system6detail15to_std_categoryERKNS0_14error_categoryEE15system_instance
0000000000383ce0 u _ZZN5boost6system6detail15to_std_categoryERKNS0_14error_categoryEE16generic_instance
0000000000383ca0 u _ZZN5boost6system6detail15to_std_categoryERKNS0_14error_categoryEE4map_
0000000000383c60 u _ZZN5boost6system6detail15to_std_categoryERKNS0_14error_categoryEE7map_mx_
0000000000144ea0 u _ZZN5boost6system6detail16is_generic_valueEiE3gen
0000000000144fe0 u _ZZNSt19_Sp_make_shared_tag5_S_tiEvE5__tag
