0000000000058bc0 T aby_add_vector_operator_client
00000000000595a0 T aby_add_vector_operator_client64
0000000000058a90 T aby_add_vector_operator_server
0000000000059470 T aby_add_vector_operator_server64
0000000000058e20 T aby_mul_vector_operator_client
0000000000059800 T aby_mul_vector_operator_client64
0000000000058cf0 T aby_mul_vector_operator_server
00000000000596d0 T aby_mul_vector_operator_server64
                 U accept
00000000000ee750 T arch_clean
00000000000ee760 T arch_cycles
00000000000ee720 T arch_init
00000000000ee780 T arch_lzcnt
                 U bind
00000000000f0c90 T bn_abs
00000000000ef5c0 T bn_add
00000000000febf0 T bn_add1_low
00000000000ef660 T bn_add_dig
00000000000ff2e0 T bn_addn_low
00000000000f0e00 T bn_bits
00000000000efa70 T bn_clean
00000000000ef970 T bn_cmp
00000000000ef8e0 T bn_cmp_abs
00000000000ef950 T bn_cmp_dig
00000000000f0c40 T bn_copy
00000000000f09f0 T bn_dbl
0000000000101f50 T bn_div
0000000000107c30 T bn_div1_low
0000000000102020 T bn_div_dig
0000000000107c10 T bn_divn_low
0000000000101fb0 T bn_div_rem
0000000000102110 T bn_div_rem_dig
00000000000f0e40 T bn_get_bit
00000000000f0fb0 T bn_get_dig
00000000000efa80 T bn_grow
00000000000f0f70 T bn_ham
00000000000f0a40 T bn_hlv
00000000000f0dd0 T bn_is_even
00000000000f0ce0 T bn_is_zero
00000000000f0a70 T bn_lsh
00000000000ffe10 T bn_lsh1_low
00000000000ffe20 T bn_lshb_low
00000000000ef9f0 T bn_make
00000000000efc50 T bn_mod_2b
00000000000efd40 T bn_mod_barrt
00000000000efd00 T bn_mod_basic
00000000000efcf0 T bn_mod_dig
00000000000f02d0 T bn_mod_monty_back
00000000000f0100 T bn_mod_monty_basic
00000000000f0230 T bn_mod_monty_comba
00000000000f00a0 T bn_mod_monty_conv
00000000000ff9e0 T bn_modn_low
00000000000f0370 T bn_mod_pmers
00000000000efd10 T bn_mod_pre_barrt
00000000000f0010 T bn_mod_pre_monty
00000000000f0330 T bn_mod_pre_pmers
00000000000ffde0 T bn_mul1_low
00000000000ffdd0 T bn_mula_low
00000000000f0500 T bn_mul_basic
00000000000f05c0 T bn_mul_comba
00000000000f04a0 T bn_mul_dig
00000000000ffe00 T bn_muld_low
00000000000f09e0 T bn_mul_karat
00000000000ffdf0 T bn_muln_low
00000000000f0d10 T bn_neg
00000000000f1190 T bn_print
00000000000f1080 T bn_rand
00000000000f1100 T bn_rand_mod
00000000000f1df0 T bn_read_bin
00000000000f2200 T bn_read_raw
00000000000f1410 T bn_read_str
0000000000104860 T bn_rec_glv
0000000000104560 T bn_rec_jsf
0000000000102620 T bn_rec_naf
0000000000104130 T bn_rec_reg
0000000000103220 T bn_rec_rtnaf
00000000001024f0 T bn_rec_slw
0000000000102d90 T bn_rec_tnaf
0000000000102870 T bn_rec_tnaf_get
0000000000102ba0 T bn_rec_tnaf_mod
0000000000102310 T bn_rec_win
00000000000f0b60 T bn_rsh
00000000000ffe30 T bn_rsh1_low
00000000000ffe40 T bn_rshb_low
00000000000f0ff0 T bn_set_2b
00000000000f0ec0 T bn_set_bit
00000000000f0fc0 T bn_set_dig
00000000000f0cb0 T bn_sign
00000000000f1db0 T bn_size_bin
00000000000f21f0 T bn_size_raw
00000000000f1370 T bn_size_str
00000000000ef750 T bn_sub
00000000000ff2f0 T bn_sub1_low
00000000000ef800 T bn_sub_dig
00000000000ff9d0 T bn_subn_low
00000000000efac0 T bn_trim
00000000000f20b0 T bn_write_bin
00000000000f2240 T bn_write_raw
00000000000f1610 T bn_write_str
00000000000f0cc0 T bn_zero
00000000000dcd50 W boost_asio_detail_posix_thread_function
000000000033e560 B __bss_start
                 U calloc
                 U clock_gettime
                 U close
                 U connect
00000000000ee690 T core_clean
00000000000ee6d0 T core_get
00000000000ee640 T core_init
00000000000ee6e0 T core_set
                 U __cxa_allocate_exception
                 U __cxa_atexit
                 U __cxa_begin_catch
                 U __cxa_end_catch
                 w __cxa_finalize
                 U __cxa_free_exception
                 U __cxa_guard_acquire
                 U __cxa_guard_release
                 U __cxa_init_primary_exception
                 U __cxa_pure_virtual
                 U __cxa_rethrow
                 U __cxa_throw
                 U __cxa_throw_bad_array_new_length
0000000000058fd0 T delete_vector
00000000000599b0 T delete_vector64
                 U DES_ecb3_encrypt
                 U DES_ecb_encrypt
                 U DES_set_key
00000000000f2ff0 T dv_cmp
00000000000f3160 T dv_cmp_const
00000000000f2740 T dv_copy
00000000000f2750 T dv_copy_cond
00000000000f3620 T dv_lshd
00000000000f2530 T dv_print
00000000000f3380 T dv_rshd
00000000000f2be0 T dv_swap_cond
00000000000f26d0 T dv_zero
                 U __dynamic_cast
00000000000f5060 T eb_add_basic
00000000000f52b0 T eb_add_projc
00000000000fd480 T eb_blind
00000000000f5880 T eb_cmp
00000000000fd2e0 T eb_copy
00000000000f5af0 T eb_curve_clean
00000000000f5b30 T eb_curve_get_a
00000000000f5b70 T eb_curve_get_b
00000000000f5c10 T eb_curve_get_cof
00000000000f5bd0 T eb_curve_get_gen
00000000000f5bf0 T eb_curve_get_ord
00000000000f5c30 T eb_curve_get_tab
00000000000f5a00 T eb_curve_init
00000000000f5bb0 T eb_curve_is_kbltz
00000000000f5b50 T eb_curve_opt_a
00000000000f5b90 T eb_curve_opt_b
00000000000f5c50 T eb_curve_set
00000000000f5dd0 T eb_dbl_basic
00000000000f5f40 T eb_dbl_projc
00000000001078a0 T eb_frb
0000000000107920 T eb_hlv
00000000000fd290 T eb_is_infty
00000000000f6e30 T eb_mul_basic
00000000000f8130 T eb_mul_dig
00000000000f8850 T eb_mul_fix_basic
00000000000f9a50 T eb_mul_fix_combd
00000000000f8b80 T eb_mul_fix_combs
00000000000fa0b0 T eb_mul_fix_lwnaf
00000000000f8100 T eb_mul_gen
00000000000f77e0 T eb_mul_halve
00000000000f7090 T eb_mul_lodah
00000000000f7700 T eb_mul_lwnaf
00000000000f87c0 T eb_mul_pre_basic
00000000000f9680 T eb_mul_pre_combd
00000000000f8910 T eb_mul_pre_combs
00000000000fa0a0 T eb_mul_pre_lwnaf
00000000000f7770 T eb_mul_rwnaf
00000000000fb960 T eb_mul_sim_basic
00000000000fc440 T eb_mul_sim_gen
00000000000fbec0 T eb_mul_sim_inter
00000000000fbf70 T eb_mul_sim_joint
00000000000fb9c0 T eb_mul_sim_trick
00000000000fc530 T eb_neg_basic
00000000000fc5a0 T eb_neg_projc
00000000000fc690 T eb_norm
00000000000fc790 T eb_norm_sim
00000000000fd4f0 T eb_on_curve
00000000000fcd30 T eb_param_get
00000000000fd260 T eb_param_level
00000000000fd0f0 T eb_param_print
00000000000fcd50 T eb_param_set
00000000000fd0b0 T eb_param_set_any
00000000000fd0a0 T eb_param_set_any_kbltz
00000000000fd080 T eb_param_set_any_plain
0000000000107ab0 T eb_pck
00000000000fdbe0 T eb_print
00000000000fd320 T eb_rand
00000000000fdc30 T eb_read_bin
00000000000fd380 T eb_rhs
00000000000fd2b0 T eb_set_infty
00000000000fdc00 T eb_size_bin
00000000000f5250 T eb_sub_basic
00000000000f5830 T eb_sub_projc
00000000000fd5a0 T eb_tab
0000000000107b10 T eb_upk
00000000000fdda0 T eb_write_bin
000000000033e560 D _edata
00000000003cc7f8 B _end
                 U epoll_create
                 U epoll_create1
                 U epoll_ctl
                 U epoll_wait
                 U __errno_location
                 U eventfd
                 U EVP_aes_128_cbc
                 U EVP_aes_128_ecb
                 U EVP_aes_192_cbc
                 U EVP_aes_192_ecb
                 U EVP_aes_256_cbc
                 U EVP_aes_256_ecb
                 U EVP_CIPHER_CTX_cleanup
                 U EVP_CIPHER_CTX_init
                 U EVP_DecryptInit_ex
                 U EVP_DecryptUpdate
                 U EVP_EncryptInit_ex
                 U EVP_EncryptUpdate
                 U exit
0000000000104a00 T fb_add
00000000000ffe50 T fb_add1_low
0000000000104a10 T fb_add_dig
00000000000ffec0 T fb_addd_low
00000000000ffea0 T fb_addn_low
00000000000f45e0 T fb_bits
0000000000104a40 T fb_cmp
0000000000104a20 T fb_cmp_dig
00000000000f4540 T fb_copy
00000000000f4580 T fb_get_bit
0000000000105150 T fb_inv_almos
0000000000104a50 T fb_inv_basic
0000000000104c40 T fb_inv_binar
0000000000105500 T fb_inv_bruch
0000000000105900 T fb_inv_ctaia
0000000000104eb0 T fb_inv_exgcd
0000000000105360 T fb_inv_itoht
0000000000105bf0 T fb_inv_lower
0000000000107c50 T fb_invn_low
0000000000105c50 T fb_inv_sim
00000000000f4560 T fb_is_zero
0000000000105fc0 T fb_itr_basic
0000000000107ea0 T fb_itrn_low
00000000001061f0 T fb_itr_pre_quick
00000000001064c0 T fb_itr_quick
00000000000f43d0 T fb_lsh
0000000000101040 T fb_lsh1_low
0000000000101080 T fb_lsha_low
0000000000101050 T fb_lshb_low
0000000000100d70 T fb_mul1_low
00000000001064d0 T fb_mul_basic
00000000001068d0 T fb_mul_dig
0000000000100270 T fb_muld_low
0000000000108b70 T fb_mulh_low
00000000001066f0 T fb_mul_integ
0000000000106730 T fb_mul_karat
0000000000106700 T fb_mul_lodah
0000000000100a50 T fb_mulm_low
00000000001008e0 T fb_muln_low
0000000000106900 T fb_param_get
0000000000106c00 T fb_param_print
0000000000106920 T fb_param_set
0000000000106bf0 T fb_param_set_any
00000000000f3950 T fb_poly_add
00000000000f3920 T fb_poly_clean
00000000000f3930 T fb_poly_get
00000000000f4390 T fb_poly_get_chain
00000000000f4340 T fb_poly_get_rdc
00000000000f4370 T fb_poly_get_slv
00000000000f3a20 T fb_poly_get_srz
00000000000f4310 T fb_poly_get_trc
00000000000f38f0 T fb_poly_init
00000000000f4160 T fb_poly_set_dense
00000000000f4220 T fb_poly_set_penta
00000000000f41a0 T fb_poly_set_trino
00000000000f3a40 T fb_poly_tab_sqr
00000000000f42f0 T fb_poly_tab_srz
00000000000f4680 T fb_print
00000000000f4660 T fb_rand
0000000000100f90 T fb_rdc1_low
0000000000106c90 T fb_rdc_basic
0000000000100df0 T fb_rdcn_low
0000000000107470 T fb_rdc_quick
00000000000f4f40 T fb_read_bin
00000000000f4780 T fb_read_str
00000000000f4450 T fb_rsh
0000000000101060 T fb_rsh1_low
0000000000101070 T fb_rshb_low
00000000000f45a0 T fb_set_bit
00000000000f4640 T fb_set_dig
00000000000f46e0 T fb_size_str
0000000000107480 T fb_slv_basic
00000000001081f0 T fb_slvn_low
0000000000107670 T fb_slv_quick
00000000000f44d0 T fb_sqr_basic
00000000000f4530 T fb_sqr_integ
0000000000101550 T fb_sqrl_low
00000000001015e0 T fb_sqrm_low
0000000000101340 T fb_sqrn_low
00000000000f4500 T fb_sqr_quick
0000000000107690 T fb_srt_basic
0000000000108dc0 T fb_srtn_low
0000000000107730 T fb_srt_quick
0000000000107740 T fb_trc_basic
0000000000108f10 T fb_trcn_low
0000000000107890 T fb_trc_quick
00000000000f4fd0 T fb_write_bin
00000000000f49a0 T fb_write_str
00000000000f4550 T fb_zero
                 U fclose
                 U fcntl
                 U fflush
                 U fopen
                 U fread
                 U free
                 U freeaddrinfo
                 U fseek
                 U ftell
                 U fwrite
                 U getaddrinfo
                 U getsockname
                 U getsockopt
                 w __gmon_start__
                 U __gmpn_addmul_1
                 U __gmpn_add_n
                 U __gmpn_divrem_1
                 U __gmpn_lshift
                 U __gmpn_mul
                 U __gmpn_mul_1
                 U __gmpn_mul_n
                 U __gmpn_rshift
                 U __gmpn_sub_n
                 U __gmpn_tdiv_qr
                 U __gmp_printf
                 U __gmpz_add
                 U __gmpz_addmul
                 U __gmpz_add_ui
                 U __gmpz_clear
                 U __gmpz_clears
                 U __gmpz_clrbit
                 U __gmpz_cmp
                 U __gmpz_cmp_ui
                 U __gmpz_divexact
                 U __gmpz_export
                 U __gmpz_fdiv_q_2exp
                 U __gmpz_fdiv_r_2exp
                 U __gmpz_gcd
                 U __gmpz_import
                 U __gmpz_init
                 U __gmpz_inits
                 U __gmpz_init_set
                 U __gmpz_inp_raw
                 U __gmpz_invert
                 U __gmpz_mod
                 U __gmpz_mul
                 U __gmpz_nextprime
                 U __gmpz_out_raw
                 U __gmpz_powm
                 U __gmpz_probab_prime_p
                 U __gmpz_set
                 U __gmpz_setbit
                 U __gmpz_set_si
                 U __gmpz_set_str
                 U __gmpz_set_ui
                 U __gmpz_sizeinbase
                 U __gmpz_sub
                 U __gmpz_sub_ui
                 U __gmpz_tstbit
0000000000344f30 B gvpvqp
                 U __gxx_personality_v0
000000000033e518 D ifcg1024
000000000033e500 D ifcg2048
000000000033e4e8 D ifcg3072
000000000033e520 D ifcp1024
000000000033e508 D ifcp2048
000000000033e4f0 D ifcp3072
000000000033e510 D ifcq1024
000000000033e4f8 D ifcq2048
000000000033e4e0 D ifcq3072
                 U if_indextoname
                 U if_nametoindex
                 U inet_ntop
                 U inet_pton
                 U ioctl
                 w _ITM_deregisterTMCloneTable
                 w _ITM_registerTMCloneTable
                 U listen
                 U log
00000000000508f0 T main
                 U malloc
00000000000fdf00 T md_map_sh256
                 U memcpy
                 U memmove
                 U memset
0000000000344f80 B m_mod
0000000000344f78 B m_numberOfElements_g
0000000000344f70 B m_numberOfElements_h
0000000000344f90 B m_prod
0000000000344fa0 B m_table_g
0000000000344f98 B m_table_h
00000000003450a0 B m_tRecv
0000000000345180 B m_tSend
0000000000345260 B m_tTimes
                 U open
                 U pause
                 U pipe
                 U poll
                 U pow
0000000000344f38 B powtwo
                 U printf
                 U pthread_condattr_init
                 U pthread_condattr_setclock
                 U pthread_cond_broadcast
                 U pthread_cond_destroy
                 U pthread_cond_init
                 U pthread_cond_signal
                 U pthread_cond_wait
                 U pthread_create
                 U pthread_detach
                 U pthread_join
                 w __pthread_key_create
                 U pthread_mutex_destroy
                 U pthread_mutex_init
                 U pthread_mutex_lock
                 U pthread_mutex_unlock
                 U pthread_sigmask
                 U putchar
                 U puts
00000000000ee9b0 T rand_bytes
00000000000ee880 T rand_clean
00000000000ee790 T rand_init
00000000000ef280 T rand_seed
                 U read
                 U recv
                 U send
                 U setsockopt
                 U SHA1_Final
                 U SHA1_Init
                 U SHA1_Update
00000000000fea50 T SHA224FinalBits
00000000000fe950 T SHA224Input
00000000000fe680 T SHA224Reset
00000000000fe6c0 T SHA224Result
                 U SHA256_Final
00000000000fe960 T SHA256FinalBits
                 U SHA256_Init
00000000000fe870 T SHA256Input
00000000000fe830 T SHA256Reset
00000000000fea60 T SHA256Result
                 U SHA256_Update
                 U SHA512_Final
                 U SHA512_Init
                 U SHA512_Update
                 U sigfillset
                 U socket
                 U sprintf
                 U stdout
                 U stpcpy
                 U strcat
                 U strchr
                 U strcmp
                 U strerror_r
                 U strlen
                 U strncmp
                 U strncpy
                 U strtod
                 U strtol
                 U timerfd_create
                 U timerfd_settime
                 U __tls_get_addr
                 U _Unwind_Resume
                 U usleep
0000000000101860 T util_bits_dig
0000000000101880 T util_cmp_const
0000000000101830 T util_conv_big
0000000000101850 T util_conv_char
0000000000101820 T util_conv_endian
0000000000101840 T util_conv_little
0000000000101ca0 T util_print_dig
0000000000101bf0 T util_printf
0000000000058f50 T vector_test
0000000000059930 T vector_test64
                 U vfprintf
                 U write
00000000000d2c30 T _Z10createKeysv
00000000000d1720 T _Z10dgk_keygenjjPP12dgk_pubkey_tPP12dgk_prvkey_t
00000000000d3a10 T _Z10djn_keygenjPP12djn_pubkey_tPP12djn_prvkey_t
00000000000d7770 T _Z10fbdbpowmodP12__mpz_structPKS_S2_
00000000000d73d0 T _Z10fbpowmod_gP12__mpz_structPKS_
00000000000d7490 T _Z10fbpowmod_hP12__mpz_structPKS_
00000000000e88a0 T _Z10floor_log2i
00000000000e7620 T _Z10getMillies8timespecS_
00000000000e7690 T _Z10StartWatchRKNSt7__cxx1112basic_stringIcSt11char_traitsIcESaIcEEE8ABYPHASE
00000000000d1150 T _Z11des_encryptPhS_S_b
00000000000d2500 T _Z11dgk_decryptP12__mpz_structP12dgk_pubkey_tP12dgk_prvkey_tS0_
00000000000d2860 T _Z11dgk_readkeyjjPP12dgk_pubkey_tPP12dgk_prvkey_t
00000000000d3f10 T _Z11djn_decryptP12__mpz_structP12djn_pubkey_tP12djn_prvkey_tS0_
00000000000d35a0 T _Z11djn_encryptP12__mpz_structP12djn_pubkey_tS0_
00000000000d13f0 T _Z11get_sec_lvlj
00000000000d6940 T _Z11print_usageNSt7__cxx1112basic_stringIcSt11char_traitsIcESaIcEEEP11parsing_ctxj
00000000000d0550 T _Z11sha256_hashPhjS_jS_
00000000000d05b0 T _Z11sha512_hashPhjS_jS_
00000000000d2e60 T _Z11test_encdecv
00000000000d11b0 T _Z12des3_encryptPhS_S_b
00000000000d2700 T _Z12dgk_storekeyjjP12dgk_pubkey_tP12dgk_prvkey_t
00000000000e7a00 T _Z12PrintTimingsv
00000000000d2ff0 T _Z12test_sharingv
00000000000d0620 T _Z13gen_rnd_bytesP13prf_state_ctxPhj
00000000000d6670 T _Z13parse_optionsPiPPPcP11parsing_ctxj
00000000000e7900 T _Z13StopRecordingRKNSt7__cxx1112basic_stringIcSt11char_traitsIcESaIcEEE8ABYPHASERKSt6vectorISt10unique_ptrI7CSocketSt14default_deleteISA_EESaISD_EE
00000000000e8830 T _Z14ceil_log2_min1i
00000000000e8860 T _Z14ceil_log2_reali
00000000000d20a0 T _Z14dgk_encrypt_dbP12__mpz_structP12dgk_pubkey_tS0_
00000000000d2100 T _Z14dgk_encrypt_fbP12__mpz_structP12dgk_pubkey_tS0_
00000000000d26c0 T _Z14dgk_freeprvkeyP12dgk_prvkey_t
00000000000d2690 T _Z14dgk_freepubkeyP12dgk_pubkey_t
00000000000d3640 T _Z14djn_encrypt_fbP12__mpz_structP12djn_pubkey_tS0_
00000000000d3780 T _Z14djn_freeprvkeyP12djn_prvkey_t
00000000000d3740 T _Z14djn_freepubkeyP12djn_pubkey_t
00000000000e7850 T _Z14StartRecordingRKNSt7__cxx1112basic_stringIcSt11char_traitsIcESaIcEEE8ABYPHASERKSt6vectorISt10unique_ptrI7CSocketSt14default_deleteISA_EESaISD_EE
000000000005a340 T _Z15BuildAddCircuitP5shareS0_P14BooleanCircuit
000000000005a360 T _Z15BuildMulCircuitP5shareS0_P14BooleanCircuit
00000000000d2340 T _Z15dgk_encrypt_crtP12__mpz_structP12dgk_pubkey_tP12dgk_prvkey_tS0_
00000000000d3e60 T _Z15djn_encrypt_crtP12__mpz_structP12djn_pubkey_tP12djn_prvkey_tS0_
00000000000d76d0 T _Z15fbdbpowmod_initPK12__mpz_structS1_S1_m
00000000000d71d0 T _Z15fbpowmod_init_gPK12__mpz_structS1_m
00000000000d72d0 T _Z15fbpowmod_init_hPK12__mpz_structS1_m
00000000000739d0 T _Z16create_new_sharejP7Circuit
0000000000074040 T _Z16create_new_shareSt6vectorIjSaIjEEP7Circuit
00000000000d6e40 T _Z16tokenize_verilogRKNSt7__cxx1112basic_stringIcSt11char_traitsIcESaIcEEERSt6vectorIjSaIjEES6_
00000000000d2180 T _Z17dgk_encrypt_plainP12__mpz_structP12dgk_pubkey_tS0_
00000000000d36e0 T _Z17djn_decrypt_plainP12__mpz_structP12djn_pubkey_tP12djn_prvkey_tS0_
00000000000d37e0 T _Z17djn_pow_mod_n_crtP12__mpz_structPKS_S2_PK12djn_pubkey_tPK12djn_prvkey_t
00000000000d1250 T _Z17gen_secure_randomPhj
00000000000d6570 T _Z17mpz_export_paddedPhjP12__mpz_struct
0000000000059af0 T _Z17read_test_optionsPiPPPcP6e_rolePjS5_S5_PNSt7__cxx1112basic_stringIcSt11char_traitsIcESaIcEEEPtS_
00000000000d2210 T _Z18dgk_encrypt_crt_dbP12__mpz_structP12dgk_pubkey_tP12dgk_prvkey_tS0_
000000000006c020 W _Z18get_gate_type_nameB5cxx1110e_gatetype
00000000000e80c0 T _Z18PrintCommunicationv
0000000000058610 T _Z19aby_vector_operatorPFP5shareS0_S0_P14BooleanCircuitERSt6vectorIjSaIjEE6e_rolePKct9e_sharing
00000000000d1660 T _Z19dgk_complete_pubkeyjjPP12dgk_pubkey_tP12__mpz_structS3_S3_
00000000000d34e0 T _Z19djn_complete_pubkeyjPP12djn_pubkey_tP12__mpz_structS3_
0000000000058ff0 T _Z21aby_vector_operator64PFP5shareS0_S0_P14BooleanCircuitERSt6vectorImSaImEE6e_rolePKct9e_sharing
0000000000058a30 T _Z23aby_add_vector_operatorRSt6vectorIjSaIjEE6e_rolePKct9e_sharing
0000000000058a60 T _Z23aby_mul_vector_operatorRSt6vectorIjSaIjEE6e_rolePKct9e_sharing
0000000000068b20 T _Z23FindBitLenPositionInVecjP15non_lin_vec_ctxj
0000000000059410 T _Z25aby_add_vector_operator64RSt6vectorImSaImEE6e_rolePKct9e_sharing
0000000000059440 T _Z25aby_mul_vector_operator64RSt6vectorImSaImEE6e_rolePKct9e_sharing
00000000000d38f0 T _Z25djn_pow_mod_n_squared_crtP12__mpz_structPKS_S2_PK12djn_pubkey_tPK12djn_prvkey_t
00000000000d0410 T _Z6ListenRKNSt7__cxx1112basic_stringIcSt11char_traitsIcESaIcEEEt
00000000000cff70 T _Z6ListenRKNSt7__cxx1112basic_stringIcSt11char_traitsIcESaIcEEEtRSt6vectorIS7_ISt10unique_ptrI7CSocketSt14default_deleteIS9_EESaISC_EESaISE_EEmj
00000000000d0200 T _Z7ConnectRKNSt7__cxx1112basic_stringIcSt11char_traitsIcESaIcEEEt
00000000000d02e0 T _Z7ConnectRKNSt7__cxx1112basic_stringIcSt11char_traitsIcESaIcEEEtRSt6vectorISt10unique_ptrI7CSocketSt14default_deleteIS9_EESaISC_EEj
00000000000e89f0 T _Z8aby_prngP12__mpz_structm
00000000000e88d0 T _Z8aby_randv
00000000000d7550 T _Z8dbpowmodP12__mpz_structPKS_S2_S2_S2_S2_
000000000005a290 T _Z8get_rolePiPPPc
00000000000d6c20 T _Z8tokenizeRKNSt7__cxx1112basic_stringIcSt11char_traitsIcESaIcEEERSt6vectorIjSaIjEES6_
00000000000e87f0 T _Z9ceil_log2i
00000000000d04f0 T _Z9sha1_hashPhjS_jS_
00000000000e7760 T _Z9StopWatchRKNSt7__cxx1112basic_stringIcSt11char_traitsIcESaIcEEE8ABYPHASE
                 U _ZdaPv
                 U _ZdaPvm
                 U _ZdlPv
                 U _ZdlPvm
0000000000344fd0 u _ZGVN5boost4asio6detail10call_stackINS1_14thread_contextENS1_16thread_info_baseEE4top_E
0000000000344fc0 u _ZGVN5boost4asio6detail30execution_context_service_baseINS1_13epoll_reactorEE2idE
0000000000344fb0 u _ZGVN5boost4asio6detail30execution_context_service_baseINS1_16resolver_serviceINS0_2ip3tcpEEEE2idE
0000000000344fb8 u _ZGVN5boost4asio6detail30execution_context_service_baseINS1_23reactive_socket_serviceINS0_2ip3tcpEEEE2idE
0000000000344fc8 u _ZGVN5boost4asio6detail30execution_context_service_baseINS1_9schedulerEE2idE
0000000000345070 u _ZGVZN5boost6system6detail15to_std_categoryERKNS0_14error_categoryEE15system_instance
0000000000345050 u _ZGVZN5boost6system6detail15to_std_categoryERKNS0_14error_categoryEE16generic_instance
0000000000345008 u _ZGVZN5boost6system6detail15to_std_categoryERKNS0_14error_categoryEE4map_
                 U _ZlsRSoPK12__mpz_struct
00000000000694e0 T _ZN10ABYCircuit10PutINVGateEj
00000000000699b0 T _ZN10ABYCircuit10PutOUTGateEj6e_rolej
0000000000069ac0 T _ZN10ABYCircuit10PutOUTGateESt6vectorIjSaIjEE6e_rolej
000000000006a2a0 T _ZN10ABYCircuit11PutCONVGateESt6vectorIjSaIjEEj9e_sharingj
000000000006a830 T _ZN10ABYCircuit13PutAssertGateESt6vectorIjSaIjEEjPm
00000000000690c0 T _ZN10ABYCircuit13PutSubsetGateEjPjjb
000000000006a0c0 T _ZN10ABYCircuit15PutCallbackGateESt6vectorIjSaIjEEjPFvP4GATEPvES5_j
000000000006abd0 T _ZN10ABYCircuit15PutCombinerGateESt6vectorIjSaIjEE
0000000000068ef0 T _ZN10ABYCircuit15PutConstantGateE9e_sharingmjj
000000000006aa30 T _ZN10ABYCircuit15PutPrintValGateESt6vectorIjSaIjEENSt7__cxx1112basic_stringIcSt11char_traitsIcESaIcEEE
00000000000697c0 T _ZN10ABYCircuit15PutRepeaterGateEjj
00000000000698b0 T _ZN10ABYCircuit15PutRepeaterGateESt6vectorIjSaIjEEj
0000000000068e10 T _ZN10ABYCircuit15PutSharedINGateE9e_sharingjj
00000000000693e0 T _ZN10ABYCircuit15PutSplitterGateEjjj
000000000006afc0 T _ZN10ABYCircuit15PutSplitterGateEjSt6vectorIjSaIjEE
0000000000069bd0 T _ZN10ABYCircuit16PutPrimitiveGateE10e_gatetypejjj
00000000000695d0 T _ZN10ABYCircuit16PutSharedOUTGateEj
00000000000696c0 T _ZN10ABYCircuit16PutSharedOUTGateESt6vectorIjSaIjEE
0000000000068b90 T _ZN10ABYCircuit16PutUniversalGateEjjjj
0000000000069210 T _ZN10ABYCircuit17PutTruthTableGateESt6vectorIjSaIjEEjjPm
000000000006adb0 T _ZN10ABYCircuit18PutPermutationGateESt6vectorIjSaIjEEPj
000000000006a480 T _ZN10ABYCircuit19PutCombineAtPosGateESt6vectorIjSaIjEEj
0000000000069e40 T _ZN10ABYCircuit22PutNonLinearVectorGateE10e_gatetypejjj
0000000000068570 T _ZN10ABYCircuit25CheckAndPropagateConstantEjRjRSt6vectorIiSaIiEES4_RSt14basic_ofstreamIcSt11char_traitsIcEE
0000000000068780 T _ZN10ABYCircuit25ExportGateInBristolFormatEjRjRSt6vectorIiSaIiEES4_RSt14basic_ofstreamIcSt11char_traitsIcEE
000000000006a640 T _ZN10ABYCircuit27PutStructurizedCombinerGateESt6vectorIjSaIjEEjjj
000000000006b120 T _ZN10ABYCircuit28ExportCircuitInBristolFormatESt6vectorIjSaIjEES2_S2_PKc
0000000000068b60 T _ZN10ABYCircuit5ResetEv
0000000000068b80 T _ZN10ABYCircuit7CleanupEv
0000000000068fd0 T _ZN10ABYCircuit9PutINGateE9e_sharingjj6e_rolej
0000000000068490 T _ZN10ABYCircuitC1Ej
0000000000068490 T _ZN10ABYCircuitC2Ej
000000000005e910 W _ZN10ABYCircuitD0Ev
000000000005e8d0 W _ZN10ABYCircuitD1Ev
000000000005e8d0 W _ZN10ABYCircuitD2Ev
00000000000753b0 T _ZN10arithshare19get_clear_value_ptrEv
0000000000075470 T _ZN10arithshare19get_clear_value_vecEPPjS0_S0_
00000000000755e0 T _ZN10arithshare19get_clear_value_vecEPPmPjS2_
0000000000075fc0 T _ZN10arithshare22get_share_from_wire_idEj
0000000000076060 W _ZN10arithshareD0Ev
0000000000076020 W _ZN10arithshareD1Ev
0000000000076020 W _ZN10arithshareD2Ev
00000000000cd140 T _ZN10CBitVector11CreateBytesEm
00000000000cd1d0 T _ZN10CBitVector11CreateBytesEmP6crypto
00000000000cd050 T _ZN10CBitVector11CreateExactEm
00000000000cd150 T _ZN10CBitVector11CreateZerosEm
00000000000cedb0 T _ZN10CBitVector11PrintBinaryEv
00000000000cd340 T _ZN10CBitVector11ResetFromToEmm
00000000000cedd0 T _ZN10CBitVector12PrintContentEv
00000000000cd540 T _ZN10CBitVector12SetBitNoMaskEmh
00000000000cd570 T _ZN10CBitVector12XORBitNoMaskEmh
00000000000cd010 T _ZN10CBitVector13delCBitVectorEv
00000000000cd2d0 T _ZN10CBitVector13ResizeinBytesEm
00000000000cddd0 T _ZN10CBitVector13SetBitsToZeroEmm
00000000000cddc0 T _ZN10CBitVector14SetBytesToZeroEmm
00000000000cf0d0 T _ZN10CBitVector15SimpleTransposeEmm
00000000000ce390 T _ZN10CBitVector15XORBytesReverseEPKhmm
00000000000cd990 T _ZN10CBitVector16SetBitsPosOffsetEPKhmmm
00000000000cd3b0 T _ZN10CBitVector16SetElementLengthEm
00000000000ce320 T _ZN10CBitVector16XORBitsPosOffsetEPKhmmm
00000000000cf000 T _ZN10CBitVector17PrintBinaryMaskedEmm
00000000000cf1a0 T _ZN10CBitVector19EklundhBitTransposeEmm
00000000000ce970 T _ZN10CBitVector3ANDEPKS_
00000000000ce940 T _ZN10CBitVector3XOREPKS_
00000000000cd3d0 T _ZN10CBitVector4CopyEPKhmm
00000000000ce8a0 T _ZN10CBitVector4CopyERKS_
00000000000ce8e0 T _ZN10CBitVector4CopyERKS_mm
00000000000ccff0 T _ZN10CBitVector4InitEv
00000000000ce9c0 T _ZN10CBitVector5PrintEmm
00000000000cd320 T _ZN10CBitVector5ResetEv
00000000000cd0c0 T _ZN10CBitVector6CreateEm
00000000000cd1e0 T _ZN10CBitVector6CreateEmm
00000000000cd240 T _ZN10CBitVector6CreateEmmm
00000000000cd280 T _ZN10CBitVector6CreateEmmmP6crypto
00000000000cd210 T _ZN10CBitVector6CreateEmmP6crypto
00000000000cd170 T _ZN10CBitVector6CreateEmP6crypto
00000000000ce810 T _ZN10CBitVector6GetArrEv
00000000000cd370 T _ZN10CBitVector6InvertEv
00000000000cd430 T _ZN10CBitVector6ORByteEmh
00000000000ce640 T _ZN10CBitVector6SetANDEPKhS1_mm
00000000000cd4f0 T _ZN10CBitVector6SetBitEmh
00000000000ce600 T _ZN10CBitVector6SetXOREPKhS1_mm
00000000000cd5d0 T _ZN10CBitVector7ANDByteEmh
00000000000ce680 T _ZN10CBitVector7CLShiftEm
00000000000cdc00 T _ZN10CBitVector7SetBitsEPKhmm
00000000000cd5a0 T _ZN10CBitVector7SetByteEmh
00000000000ce1f0 T _ZN10CBitVector7XORBitsEPKhmm
00000000000cd5c0 T _ZN10CBitVector7XORByteEmh
00000000000ce3c0 T _ZN10CBitVector8ANDBytesEPKhmm
00000000000cd100 T _ZN10CBitVector8FillRandEmP6crypto
00000000000cea90 T _ZN10CBitVector8PrintHexEb
00000000000cec10 T _ZN10CBitVector8PrintHexEmmb
00000000000cda10 T _ZN10CBitVector8SetBytesEPKhmm
00000000000cd350 T _ZN10CBitVector8SetToOneEv
00000000000ce1e0 T _ZN10CBitVector8XORBytesEPKhm
00000000000cdea0 T _ZN10CBitVector8XORBytesEPKhmm
00000000000ce9a0 T _ZN10CBitVector9AttachBufEPhm
00000000000ce9b0 T _ZN10CBitVector9DetachBufEv
00000000000cf910 T _ZN10CBitVector9TransposeEmm
00000000000ce910 T _ZN10CBitVector9XORVectorERKS_mm
00000000000cd0d0 T _ZN10CBitVectorC1Em
00000000000cd1a0 T _ZN10CBitVectorC1EmP6crypto
00000000000cd000 T _ZN10CBitVectorC1Ev
00000000000cd0d0 T _ZN10CBitVectorC2Em
00000000000cd1a0 T _ZN10CBitVectorC2EmP6crypto
00000000000cd000 T _ZN10CBitVectorC2Ev
00000000000cd040 T _ZN10CBitVectorD1Ev
00000000000cd040 T _ZN10CBitVectorD2Ev
00000000000ea3d0 T _ZN10NaorPinkas6SenderEjjP7channelPh
00000000000e9e60 T _ZN10NaorPinkas8ReceiverEjjP10CBitVectorP7channelPh
00000000000ea9f0 W _ZN10NaorPinkasD0Ev
00000000000ea9c0 W _ZN10NaorPinkasD1Ev
00000000000ea9c0 W _ZN10NaorPinkasD2Ev
0000000000079760 W _ZN10XORMasking10expandMaskEP10CBitVectorPhjjjP6crypto
00000000000799b0 W _ZN10XORMasking4MaskEjjPP10CBitVectorS1_13snd_ot_flavor
0000000000079320 W _ZN10XORMasking6UnMaskEjjP10CBitVectorS1_S1_S1_13snd_ot_flavor
0000000000067000 W _ZN10XORMaskingD0Ev
0000000000067080 W _ZN10XORMaskingD1Ev
0000000000067080 W _ZN10XORMaskingD2Ev
00000000000afa20 W _ZN10YaoKeyXXLT10XOR_QUAD_BEPhS0_S0_
00000000000af9b0 W _ZN10YaoKeyXXLT12XOR_DOUBLE_BEPhS0_S0_
00000000000af980 W _ZN10YaoKeyXXLT3XOREPhS0_S0_
00000000000afa90 W _ZN10YaoKeyXXLTD0Ev
00000000000af970 W _ZN10YaoKeyXXLTD1Ev
00000000000af970 W _ZN10YaoKeyXXLTD2Ev
00000000000af070 T _ZN10YaoSharing11EncryptWireEPhS0_j
00000000000af100 T _ZN10YaoSharing15EncryptWireGRR3EPhS0_S0_S0_j
00000000000a9190 W _ZN10YaoSharing19PreComputationPhaseEv
00000000000a91c0 W _ZN10YaoSharing22GetCircuitBuildRoutineEv
00000000000a91a0 W _ZN10YaoSharing25GetMaxCommunicationRoundsEv
00000000000a91b0 W _ZN10YaoSharing25GetNumNonLinearOperationsEv
00000000000ae7c0 T _ZN10YaoSharing26PrintPerformanceStatisticsEv
00000000000af2d0 T _ZN10YaoSharing4InitEv
00000000000af1c0 T _ZN10YaoSharing8PrintKeyEPh
00000000000af050 T _ZN10YaoSharingD0Ev
00000000000aea30 T _ZN10YaoSharingD1Ev
00000000000aea30 T _ZN10YaoSharingD2Ev
000000000008dcb0 T _ZN11BoolSharing10ComputeMTsEv
0000000000096fb0 T _ZN11BoolSharing11AssignInputER10CBitVector
000000000008dfc0 T _ZN11BoolSharing11EvaluateMTsEv
000000000008db60 T _ZN11BoolSharing12InitNewLayerEv
0000000000097530 W _ZN11BoolSharing12sharing_typeEv
0000000000092a20 T _ZN11BoolSharing13GetDataToSendERSt6vectorIPhSaIS1_EERS0_ImSaImEE
0000000000091570 T _ZN11BoolSharing13InitializeMTsEv
000000000008f360 T _ZN11BoolSharing14StoreMTsToFileEPKc
000000000008e720 T _ZN11BoolSharing15EvaluateANDGateEv
0000000000097540 W _ZN11BoolSharing15InstantiateGateEP4GATE
000000000008f5b0 T _ZN11BoolSharing15ReadMTsFromFileEPKc
000000000008ec90 T _ZN11BoolSharing16EvaluateSIMDGateEj
000000000008cc60 T _ZN11BoolSharing16FinishSetupPhaseEP8ABYSetup
000000000008e940 T _ZN11BoolSharing17AssignInputSharesEv
000000000008cc00 T _ZN11BoolSharing17PerformSetupPhaseEP8ABYSetup
0000000000094b50 T _ZN11BoolSharing17PrepareSetupPhaseEP8ABYSetup
000000000008eab0 T _ZN11BoolSharing18AssignOutputSharesEv
0000000000091e70 T _ZN11BoolSharing18EvaluateOPLUTGatesEv
00000000000929e0 T _ZN11BoolSharing18FinishCircuitLayerEv
0000000000091d40 T _ZN11BoolSharing18PrepareOnlinePhaseEv
0000000000092e90 T _ZN11BoolSharing19GetBuffersToReceiveERSt6vectorIPhSaIS1_EERS0_ImSaImEE
000000000008fe40 T _ZN11BoolSharing19PreComputationPhaseEv
00000000000913d0 T _ZN11BoolSharing20PrepareSetupPhaseMTsEP8ABYSetup
0000000000097510 W _ZN11BoolSharing22GetCircuitBuildRoutineEv
0000000000093360 T _ZN11BoolSharing22PrepareSetupPhaseOPLUTEP8ABYSetup
00000000000951e0 T _ZN11BoolSharing23EvaluateLocalOperationsEj
0000000000097520 W _ZN11BoolSharing25GetMaxCommunicationRoundsEv
0000000000097570 W _ZN11BoolSharing25GetNumNonLinearOperationsEv
000000000008cd30 T _ZN11BoolSharing26PrintPerformanceStatisticsEv
0000000000095d20 T _ZN11BoolSharing29EvaluateInteractiveOperationsEj
0000000000090360 T _ZN11BoolSharing45isCircuitSizeLessThanOrEqualWithValueFromFileEPcj
00000000000907f0 T _ZN11BoolSharing4InitEv
0000000000090aa0 T _ZN11BoolSharing5ResetEv
00000000000972d0 T _ZN11BoolSharing9GetOutputER10CBitVector
0000000000099460 W _ZN11BoolSharingD0Ev
0000000000098940 W _ZN11BoolSharingD1Ev
0000000000098940 W _ZN11BoolSharingD2Ev
000000000005a380 W _ZN11parsing_ctxD1Ev
000000000005a380 W _ZN11parsing_ctxD2Ev
00000000000d5f60 T _ZN11prime_field10get_rnd_feEv
00000000000d5a50 T _ZN11prime_field11get_rnd_numEj
00000000000d5fe0 T _ZN11prime_field13get_generatorEv
00000000000d6640 W _ZN11prime_field13num_byte_sizeEv
00000000000d6650 W _ZN11prime_field14get_field_sizeEv
00000000000d6020 T _ZN11prime_field17get_rnd_generatorEv
00000000000d5ad0 T _ZN11prime_field4initE14SECURITYLEVELSPh
00000000000d6110 T _ZN11prime_field5get_pEv
00000000000d5ee0 T _ZN11prime_field6get_feEv
00000000000d59d0 T _ZN11prime_field7get_numEv
00000000000d6430 T _ZN11prime_field8get_sizeEv
00000000000d6520 T _ZN11prime_field9get_brickEP2fe
00000000000d5d80 T _ZN11prime_field9get_orderEv
00000000000d5900 T _ZN11prime_fieldD0Ev
00000000000d5870 T _ZN11prime_fieldD1Ev
00000000000d5870 T _ZN11prime_fieldD2Ev
00000000000894c0 W _ZN12ArithSharingIhE11AssignInputER10CBitVector
000000000007cdc0 W _ZN12ArithSharingIhE11EvaluateMTsEv
000000000007ca10 W _ZN12ArithSharingIhE11ShareValuesEP4GATE
000000000007db60 W _ZN12ArithSharingIhE12InitNewLayerEv
000000000005e830 W _ZN12ArithSharingIhE12sharing_typeEv
0000000000088360 W _ZN12ArithSharingIhE13GetDataToSendERSt6vectorIPhSaIS2_EERS1_ImSaImEE
0000000000083fd0 W _ZN12ArithSharingIhE13SelectiveOpenEP4GATE
000000000007cff0 W _ZN12ArithSharingIhE15EvaluateADDGateEP4GATE
000000000007c9a0 W _ZN12ArithSharingIhE15EvaluateINVGateEP4GATE
000000000007d120 W _ZN12ArithSharingIhE15EvaluateMULGateEv
00000000000792a0 W _ZN12ArithSharingIhE15InstantiateGateEP4GATE
0000000000083750 W _ZN12ArithSharingIhE16EvaluateCONVGateEP4GATE
000000000007c680 W _ZN12ArithSharingIhE16EvaluateSIMDGateEj
000000000007db30 W _ZN12ArithSharingIhE16FinishSetupPhaseEP8ABYSetup
000000000007cb00 W _ZN12ArithSharingIhE16ReconstructValueEP4GATE
000000000007cbd0 W _ZN12ArithSharingIhE17AssignInputSharesEv
000000000007d910 W _ZN12ArithSharingIhE17ComputeMTsFromOTsEv
00000000000787e0 W _ZN12ArithSharingIhE17PerformSetupPhaseEP8ABYSetup
0000000000086090 W _ZN12ArithSharingIhE17PrepareSetupPhaseEP8ABYSetup
000000000007cca0 W _ZN12ArithSharingIhE18AssignOutputSharesEv
000000000007dcb0 W _ZN12ArithSharingIhE18FinishCircuitLayerEv
000000000007da50 W _ZN12ArithSharingIhE18FinishMTGenerationEv
000000000007dc00 W _ZN12ArithSharingIhE18PrepareOnlinePhaseEv
00000000000870c0 W _ZN12ArithSharingIhE19GetBuffersToReceiveERSt6vectorIPhSaIS2_EERS1_ImSaImEE
000000000005e850 W _ZN12ArithSharingIhE19PreComputationPhaseEv
000000000007cfa0 W _ZN12ArithSharingIhE20EvaluateConstantGateEP4GATE
000000000007d080 W _ZN12ArithSharingIhE20EvaluateMULCONSTGateEP4GATE
000000000007d840 W _ZN12ArithSharingIhE22AssignConversionSharesEv
000000000005e840 W _ZN12ArithSharingIhE22GetCircuitBuildRoutineEv
000000000008bb60 W _ZN12ArithSharingIhE23EvaluateLocalOperationsEj
000000000005e810 W _ZN12ArithSharingIhE25GetMaxCommunicationRoundsEv
000000000005e820 W _ZN12ArithSharingIhE25GetNumNonLinearOperationsEv
000000000007a4a0 W _ZN12ArithSharingIhE26PrintPerformanceStatisticsEv
000000000007d5b0 W _ZN12ArithSharingIhE28AssignClientConversionSharesEv
000000000007d230 W _ZN12ArithSharingIhE28AssignServerConversionSharesEv
000000000008b020 W _ZN12ArithSharingIhE29EvaluateInteractiveOperationsEj
0000000000082850 W _ZN12ArithSharingIhE4InitEv
0000000000078a20 W _ZN12ArithSharingIhE5ResetEv
0000000000085b60 W _ZN12ArithSharingIhE7InitMTsEv
000000000008a100 W _ZN12ArithSharingIhE9GetOutputER10CBitVector
0000000000063410 W _ZN12ArithSharingIhEC1E9e_sharing6e_rolejP10ABYCircuitP6crypto12e_mt_gen_alg
0000000000063410 W _ZN12ArithSharingIhEC2E9e_sharing6e_rolejP10ABYCircuitP6crypto12e_mt_gen_alg
00000000000603c0 W _ZN12ArithSharingIhED0Ev
0000000000062290 W _ZN12ArithSharingIhED1Ev
0000000000062290 W _ZN12ArithSharingIhED2Ev
0000000000089ae0 W _ZN12ArithSharingIjE11AssignInputER10CBitVector
000000000007ffa0 W _ZN12ArithSharingIjE11EvaluateMTsEv
000000000007fbe0 W _ZN12ArithSharingIjE11ShareValuesEP4GATE
0000000000080d80 W _ZN12ArithSharingIjE12InitNewLayerEv
000000000005e790 W _ZN12ArithSharingIjE12sharing_typeEv
0000000000087e30 W _ZN12ArithSharingIjE13GetDataToSendERSt6vectorIPhSaIS2_EERS1_ImSaImEE
0000000000084360 W _ZN12ArithSharingIjE13SelectiveOpenEP4GATE
00000000000801f0 W _ZN12ArithSharingIjE15EvaluateADDGateEP4GATE
000000000007fb80 W _ZN12ArithSharingIjE15EvaluateINVGateEP4GATE
0000000000080320 W _ZN12ArithSharingIjE15EvaluateMULGateEv
00000000000792e0 W _ZN12ArithSharingIjE15InstantiateGateEP4GATE
0000000000083b90 W _ZN12ArithSharingIjE16EvaluateCONVGateEP4GATE
000000000007f830 W _ZN12ArithSharingIjE16EvaluateSIMDGateEj
0000000000080d50 W _ZN12ArithSharingIjE16FinishSetupPhaseEP8ABYSetup
000000000007fcd0 W _ZN12ArithSharingIjE16ReconstructValueEP4GATE
000000000007fda0 W _ZN12ArithSharingIjE17AssignInputSharesEv
0000000000080b30 W _ZN12ArithSharingIjE17ComputeMTsFromOTsEv
0000000000078800 W _ZN12ArithSharingIjE17PerformSetupPhaseEP8ABYSetup
0000000000084e90 W _ZN12ArithSharingIjE17PrepareSetupPhaseEP8ABYSetup
000000000007fe80 W _ZN12ArithSharingIjE18AssignOutputSharesEv
0000000000080ed0 W _ZN12ArithSharingIjE18FinishCircuitLayerEv
0000000000080c70 W _ZN12ArithSharingIjE18FinishMTGenerationEv
0000000000080e20 W _ZN12ArithSharingIjE18PrepareOnlinePhaseEv
00000000000878f0 W _ZN12ArithSharingIjE19GetBuffersToReceiveERSt6vectorIPhSaIS2_EERS1_ImSaImEE
000000000005e7b0 W _ZN12ArithSharingIjE19PreComputationPhaseEv
00000000000801a0 W _ZN12ArithSharingIjE20EvaluateConstantGateEP4GATE
0000000000080280 W _ZN12ArithSharingIjE20EvaluateMULCONSTGateEP4GATE
0000000000080a60 W _ZN12ArithSharingIjE22AssignConversionSharesEv
000000000005e7a0 W _ZN12ArithSharingIjE22GetCircuitBuildRoutineEv
000000000008c670 W _ZN12ArithSharingIjE23EvaluateLocalOperationsEj
000000000005e770 W _ZN12ArithSharingIjE25GetMaxCommunicationRoundsEv
000000000005e780 W _ZN12ArithSharingIjE25GetNumNonLinearOperationsEv
000000000007a3c0 W _ZN12ArithSharingIjE26PrintPerformanceStatisticsEv
00000000000807b0 W _ZN12ArithSharingIjE28AssignClientConversionSharesEv
0000000000080430 W _ZN12ArithSharingIjE28AssignServerConversionSharesEv
0000000000088f20 W _ZN12ArithSharingIjE29EvaluateInteractiveOperationsEj
0000000000083050 W _ZN12ArithSharingIjE4InitEv
0000000000078e60 W _ZN12ArithSharingIjE5ResetEv
0000000000084960 W _ZN12ArithSharingIjE7InitMTsEv
000000000008a5c0 W _ZN12ArithSharingIjE9GetOutputER10CBitVector
0000000000063e50 W _ZN12ArithSharingIjEC1E9e_sharing6e_rolejP10ABYCircuitP6crypto12e_mt_gen_alg
0000000000063e50 W _ZN12ArithSharingIjEC2E9e_sharing6e_rolejP10ABYCircuitP6crypto12e_mt_gen_alg
000000000005fc00 W _ZN12ArithSharingIjED0Ev
0000000000060b80 W _ZN12ArithSharingIjED1Ev
0000000000060b80 W _ZN12ArithSharingIjED2Ev
0000000000089df0 W _ZN12ArithSharingImE11AssignInputER10CBitVector
0000000000081690 W _ZN12ArithSharingImE11EvaluateMTsEv
00000000000812d0 W _ZN12ArithSharingImE11ShareValuesEP4GATE
00000000000824c0 W _ZN12ArithSharingImE12InitNewLayerEv
000000000005e740 W _ZN12ArithSharingImE12sharing_typeEv
0000000000087bb0 W _ZN12ArithSharingImE13GetDataToSendERSt6vectorIPhSaIS2_EERS1_ImSaImEE
0000000000084190 W _ZN12ArithSharingImE13SelectiveOpenEP4GATE
0000000000081910 W _ZN12ArithSharingImE15EvaluateADDGateEP4GATE
0000000000081260 W _ZN12ArithSharingImE15EvaluateINVGateEP4GATE
0000000000081a40 W _ZN12ArithSharingImE15EvaluateMULGateEv
0000000000079300 W _ZN12ArithSharingImE15InstantiateGateEP4GATE
0000000000083970 W _ZN12ArithSharingImE16EvaluateCONVGateEP4GATE
0000000000080f10 W _ZN12ArithSharingImE16EvaluateSIMDGateEj
0000000000082490 W _ZN12ArithSharingImE16FinishSetupPhaseEP8ABYSetup
00000000000813c0 W _ZN12ArithSharingImE16ReconstructValueEP4GATE
0000000000081490 W _ZN12ArithSharingImE17AssignInputSharesEv
0000000000082270 W _ZN12ArithSharingImE17ComputeMTsFromOTsEv
0000000000078810 W _ZN12ArithSharingImE17PerformSetupPhaseEP8ABYSetup
0000000000086990 W _ZN12ArithSharingImE17PrepareSetupPhaseEP8ABYSetup
0000000000081570 W _ZN12ArithSharingImE18AssignOutputSharesEv
0000000000082610 W _ZN12ArithSharingImE18FinishCircuitLayerEv
00000000000823b0 W _ZN12ArithSharingImE18FinishMTGenerationEv
0000000000082560 W _ZN12ArithSharingImE18PrepareOnlinePhaseEv
0000000000087370 W _ZN12ArithSharingImE19GetBuffersToReceiveERSt6vectorIPhSaIS2_EERS1_ImSaImEE
000000000005e760 W _ZN12ArithSharingImE19PreComputationPhaseEv
0000000000081890 W _ZN12ArithSharingImE20EvaluateConstantGateEP4GATE
00000000000819a0 W _ZN12ArithSharingImE20EvaluateMULCONSTGateEP4GATE
00000000000821a0 W _ZN12ArithSharingImE22AssignConversionSharesEv
000000000005e750 W _ZN12ArithSharingImE22GetCircuitBuildRoutineEv
0000000000088990 W _ZN12ArithSharingImE23EvaluateLocalOperationsEj
000000000005e720 W _ZN12ArithSharingImE25GetMaxCommunicationRoundsEv
000000000005e730 W _ZN12ArithSharingImE25GetNumNonLinearOperationsEv
000000000007a660 W _ZN12ArithSharingImE26PrintPerformanceStatisticsEv
0000000000081ef0 W _ZN12ArithSharingImE28AssignClientConversionSharesEv
0000000000081b50 W _ZN12ArithSharingImE28AssignServerConversionSharesEv
000000000008aa80 W _ZN12ArithSharingImE29EvaluateInteractiveOperationsEj
0000000000082b00 W _ZN12ArithSharingImE4InitEv
0000000000079080 W _ZN12ArithSharingImE5ResetEv
0000000000086460 W _ZN12ArithSharingImE7InitMTsEv
000000000008a820 W _ZN12ArithSharingImE9GetOutputER10CBitVector
0000000000064370 W _ZN12ArithSharingImEC1E9e_sharing6e_rolejP10ABYCircuitP6crypto12e_mt_gen_alg
0000000000064370 W _ZN12ArithSharingImEC2E9e_sharing6e_rolejP10ABYCircuitP6crypto12e_mt_gen_alg
000000000005ec80 W _ZN12ArithSharingImED0Ev
0000000000061ae0 W _ZN12ArithSharingImED1Ev
0000000000061ae0 W _ZN12ArithSharingImED2Ev
00000000000897d0 W _ZN12ArithSharingItE11AssignInputER10CBitVector
000000000007e660 W _ZN12ArithSharingItE11EvaluateMTsEv
000000000007e290 W _ZN12ArithSharingItE11ShareValuesEP4GATE
000000000007f6a0 W _ZN12ArithSharingItE12InitNewLayerEv
000000000005e7e0 W _ZN12ArithSharingItE12sharing_typeEv
00000000000880c0 W _ZN12ArithSharingItE13GetDataToSendERSt6vectorIPhSaIS2_EERS1_ImSaImEE
0000000000084520 W _ZN12ArithSharingItE13SelectiveOpenEP4GATE
000000000007e930 W _ZN12ArithSharingItE15EvaluateADDGateEP4GATE
000000000007e120 W _ZN12ArithSharingItE15EvaluateINVGateEP4GATE
000000000007ec30 W _ZN12ArithSharingItE15EvaluateMULGateEv
00000000000792c0 W _ZN12ArithSharingItE15InstantiateGateEP4GATE
0000000000083db0 W _ZN12ArithSharingItE16EvaluateCONVGateEP4GATE
000000000007dcf0 W _ZN12ArithSharingItE16EvaluateSIMDGateEj
000000000007f670 W _ZN12ArithSharingItE16FinishSetupPhaseEP8ABYSetup
000000000007e380 W _ZN12ArithSharingItE16ReconstructValueEP4GATE
000000000007e450 W _ZN12ArithSharingItE17AssignInputSharesEv
000000000007f450 W _ZN12ArithSharingItE17ComputeMTsFromOTsEv
00000000000787f0 W _ZN12ArithSharingItE17PerformSetupPhaseEP8ABYSetup
0000000000085790 W _ZN12ArithSharingItE17PrepareSetupPhaseEP8ABYSetup
000000000007e530 W _ZN12ArithSharingItE18AssignOutputSharesEv
000000000007f7f0 W _ZN12ArithSharingItE18FinishCircuitLayerEv
000000000007f590 W _ZN12ArithSharingItE18FinishMTGenerationEv
000000000007f740 W _ZN12ArithSharingItE18PrepareOnlinePhaseEv
0000000000087630 W _ZN12ArithSharingItE19GetBuffersToReceiveERSt6vectorIPhSaIS2_EERS1_ImSaImEE
000000000005e800 W _ZN12ArithSharingItE19PreComputationPhaseEv
000000000007e860 W _ZN12ArithSharingItE20EvaluateConstantGateEP4GATE
000000000007eab0 W _ZN12ArithSharingItE20EvaluateMULCONSTGateEP4GATE
000000000007f380 W _ZN12ArithSharingItE22AssignConversionSharesEv
000000000005e7f0 W _ZN12ArithSharingItE22GetCircuitBuildRoutineEv
000000000008c0e0 W _ZN12ArithSharingItE23EvaluateLocalOperationsEj
000000000005e7c0 W _ZN12ArithSharingItE25GetMaxCommunicationRoundsEv
000000000005e7d0 W _ZN12ArithSharingItE25GetNumNonLinearOperationsEv
000000000007a580 W _ZN12ArithSharingItE26PrintPerformanceStatisticsEv
000000000007f100 W _ZN12ArithSharingItE28AssignClientConversionSharesEv
000000000007ed40 W _ZN12ArithSharingItE28AssignServerConversionSharesEv
000000000008b5c0 W _ZN12ArithSharingItE29EvaluateInteractiveOperationsEj
0000000000082da0 W _ZN12ArithSharingItE4InitEv
0000000000078c40 W _ZN12ArithSharingItE5ResetEv
0000000000085260 W _ZN12ArithSharingItE7InitMTsEv
000000000008a360 W _ZN12ArithSharingItE9GetOutputER10CBitVector
0000000000063930 W _ZN12ArithSharingItEC1E9e_sharing6e_rolejP10ABYCircuitP6crypto12e_mt_gen_alg
0000000000063930 W _ZN12ArithSharingItEC2E9e_sharing6e_rolejP10ABYCircuitP6crypto12e_mt_gen_alg
000000000005f440 W _ZN12ArithSharingItED0Ev
0000000000061330 W _ZN12ArithSharingItED1Ev
0000000000061330 W _ZN12ArithSharingItED2Ev
00000000000d5120 T _ZN12ecc_brickexp3powEP2feP3num
00000000000d5560 T _ZN12ecc_brickexpC1EP2feP9ecc_field
00000000000d5560 T _ZN12ecc_brickexpC2EP2feP9ecc_field
00000000000d41e0 T _ZN12ecc_brickexpD0Ev
00000000000d4160 T _ZN12ecc_brickexpD1Ev
00000000000d4160 T _ZN12ecc_brickexpD2Ev
00000000000d6280 T _ZN12gmp_brickexp3powEP2feP3num
00000000000d6440 T _ZN12gmp_brickexp4initEP2feP11prime_field
00000000000d57c0 T _ZN12gmp_brickexpD0Ev
00000000000d5770 T _ZN12gmp_brickexpD1Ev
00000000000d5770 T _ZN12gmp_brickexpD2Ev
00000000000e8ba0 T _ZN12IKNPOTExtRec14ComputeBaseOTsE10field_type
00000000000e8c30 T _ZN12IKNPOTExtRec16receiver_routineEjm
00000000000e9370 W _ZN12IKNPOTExtRecD0Ev
00000000000e9280 W _ZN12IKNPOTExtRecD1Ev
00000000000e9280 W _ZN12IKNPOTExtRecD2Ev
00000000000e9ac0 T _ZN12IKNPOTExtSnd14ComputeBaseOTsE10field_type
00000000000e9470 T _ZN12IKNPOTExtSnd14sender_routineEjm
00000000000e9cd0 W _ZN12IKNPOTExtSndD0Ev
00000000000e9b50 W _ZN12IKNPOTExtSndD1Ev
00000000000e9b50 W _ZN12IKNPOTExtSndD2Ev
0000000000079bc0 W _ZN14ArithMTMaskingIhE10expandMaskEP10CBitVectorPhjjjP6crypto
000000000007a740 W _ZN14ArithMTMaskingIhE4MaskEjjPP10CBitVectorS2_13snd_ot_flavor
000000000007b3c0 W _ZN14ArithMTMaskingIhE6UnMaskEjjP10CBitVectorS2_S2_S2_13snd_ot_flavor
000000000007a240 W _ZN14ArithMTMaskingIhED0Ev
0000000000078820 W _ZN14ArithMTMaskingIhED1Ev
0000000000078820 W _ZN14ArithMTMaskingIhED2Ev
0000000000079ec0 W _ZN14ArithMTMaskingIjE10expandMaskEP10CBitVectorPhjjjP6crypto
000000000007b000 W _ZN14ArithMTMaskingIjE4MaskEjjPP10CBitVectorS2_13snd_ot_flavor
000000000007b6b0 W _ZN14ArithMTMaskingIjE6UnMaskEjjP10CBitVectorS2_S2_S2_13snd_ot_flavor
000000000007a340 W _ZN14ArithMTMaskingIjED0Ev
0000000000078920 W _ZN14ArithMTMaskingIjED1Ev
0000000000078920 W _ZN14ArithMTMaskingIjED2Ev
000000000007a040 W _ZN14ArithMTMaskingImE10expandMaskEP10CBitVectorPhjjjP6crypto
000000000007ad70 W _ZN14ArithMTMaskingImE4MaskEjjPP10CBitVectorS2_13snd_ot_flavor
000000000007b9a0 W _ZN14ArithMTMaskingImE6UnMaskEjjP10CBitVectorS2_S2_S2_13snd_ot_flavor
000000000007a2c0 W _ZN14ArithMTMaskingImED0Ev
00000000000789a0 W _ZN14ArithMTMaskingImED1Ev
00000000000789a0 W _ZN14ArithMTMaskingImED2Ev
0000000000079d40 W _ZN14ArithMTMaskingItE10expandMaskEP10CBitVectorPhjjjP6crypto
000000000007aaf0 W _ZN14ArithMTMaskingItE4MaskEjjPP10CBitVectorS2_13snd_ot_flavor
000000000007bd10 W _ZN14ArithMTMaskingItE6UnMaskEjjP10CBitVectorS2_S2_S2_13snd_ot_flavor
000000000007a1c0 W _ZN14ArithMTMaskingItED0Ev
00000000000788a0 W _ZN14ArithMTMaskingItED1Ev
00000000000788a0 W _ZN14ArithMTMaskingItED2Ev
00000000000bec70 T _ZN14BooleanCircuit10PutA2YGateEP5share
00000000000bee70 T _ZN14BooleanCircuit10PutADDGateEP5shareS1_
00000000000be600 T _ZN14BooleanCircuit10PutAddGateESt6vectorIjSaIjEES2_i
00000000000b6160 T _ZN14BooleanCircuit10PutANDGateEjj
00000000000b6440 T _ZN14BooleanCircuit10PutANDGateEP5shareS1_
00000000000b6330 T _ZN14BooleanCircuit10PutANDGateESt6vectorIjSaIjEES2_
00000000000c9ea0 W _ZN14BooleanCircuit10PutB2AGateEP5share
00000000000b2000 T _ZN14BooleanCircuit10PutB2YGateEP5share
00000000000b2f20 T _ZN14BooleanCircuit10PutIdxGateEjj
00000000000afba0 T _ZN14BooleanCircuit10PutINVGateEj
00000000000b1650 T _ZN14BooleanCircuit10PutINVGateEP5share
00000000000b1510 T _ZN14BooleanCircuit10PutINVGateESt6vectorIjSaIjEE
00000000000b36e0 T _ZN14BooleanCircuit10PutMaxGateEPP5sharej
00000000000b33f0 T _ZN14BooleanCircuit10PutMaxGateERKSt6vectorIP5shareSaIS2_EE
00000000000b3150 T _ZN14BooleanCircuit10PutMaxGateERKSt6vectorIS0_IjSaIjEESaIS2_EE
00000000000c1d80 T _ZN14BooleanCircuit10PutMinGateEPP5sharej
00000000000c13c0 T _ZN14BooleanCircuit10PutMinGateESt6vectorIS0_IjSaIjEESaIS2_EE
00000000000c1160 T _ZN14BooleanCircuit10PutMULGateEP5shareS1_
00000000000c0850 T _ZN14BooleanCircuit10PutMulGateESt6vectorIjSaIjEES2_jbb
00000000000ba0c0 T _ZN14BooleanCircuit10PutMUXGateEP5shareS1_S1_
00000000000b9de0 T _ZN14BooleanCircuit10PutMUXGateESt6vectorIjSaIjEES2_ji
00000000000b4c70 T _ZN14BooleanCircuit10PutOUTGateEj6e_role
00000000000b5260 T _ZN14BooleanCircuit10PutOUTGateEP5share6e_role
00000000000b4e90 T _ZN14BooleanCircuit10PutOUTGateESt6vectorIjSaIjEE6e_role
00000000000b8740 T _ZN14BooleanCircuit10PutSUBGateEP5shareS1_
00000000000b8330 T _ZN14BooleanCircuit10PutSUBGateESt6vectorIjSaIjEES2_j
00000000000b0eb0 T _ZN14BooleanCircuit10PutXORGateEjj
00000000000b3ce0 T _ZN14BooleanCircuit10PutXORGateEP5shareS1_
00000000000b3bd0 T _ZN14BooleanCircuit10PutXORGateESt6vectorIjSaIjEES2_
00000000000b1d00 T _ZN14BooleanCircuit10PutY2BGateEP5share
00000000000afab0 T _ZN14BooleanCircuit11PutCONSGateEmj
00000000000afad0 T _ZN14BooleanCircuit11PutCONSGateEPhj
00000000000afaf0 T _ZN14BooleanCircuit11PutCONSGateEPjj
00000000000bc5b0 T _ZN14BooleanCircuit11PutELM0GateESt6vectorIjSaIjEEj
00000000000bbc50 T _ZN14BooleanCircuit11PutWideGateE10e_gatetypeSt6vectorIjSaIjEE
00000000000bf0a0 T _ZN14BooleanCircuit12PutLUTGTGateESt6vectorIjSaIjEES2_
00000000000b92e0 T _ZN14BooleanCircuit12PutPreOrGateEP5share
00000000000b9140 T _ZN14BooleanCircuit12PutPreOrGateESt6vectorIjSaIjEE
00000000000b94e0 T _ZN14BooleanCircuit13PutANDVecGateEP5shareS1_
00000000000b7250 T _ZN14BooleanCircuit13PutCSNNetworkESt6vectorIS0_IjSaIjEESaIS2_EE
00000000000bd510 T _ZN14BooleanCircuit13PutLUTAddGateESt6vectorIjSaIjEES2_i
00000000000c4d30 T _ZN14BooleanCircuit13PutMaxIdxGateEPP5shareS2_jS2_S2_
00000000000c3a70 T _ZN14BooleanCircuit13PutMaxIdxGateESt6vectorIS0_IjSaIjEESaIS2_EES4_RS2_S5_
00000000000c32f0 T _ZN14BooleanCircuit13PutMinIdxGateEPP5shareS2_jS2_S2_
00000000000c2020 T _ZN14BooleanCircuit13PutMinIdxGateESt6vectorIS0_IjSaIjEESaIS2_EES4_RS2_S5_
00000000000b4860 T _ZN14BooleanCircuit13PutSIMDINGateEj6e_role
00000000000cba50 W _ZN14BooleanCircuit13PutSIMDINGateEjhj6e_role
00000000000cbc30 W _ZN14BooleanCircuit13PutSIMDINGateEjjj6e_role
00000000000b4be0 T _ZN14BooleanCircuit13PutSIMDINGateEjm6e_role
00000000000cbd20 W _ZN14BooleanCircuit13PutSIMDINGateEjmj6e_role
00000000000cc830 W _ZN14BooleanCircuit13PutSIMDINGateEjPhj6e_role
00000000000cc4a0 W _ZN14BooleanCircuit13PutSIMDINGateEjPjj6e_role
00000000000cc660 W _ZN14BooleanCircuit13PutSIMDINGateEjPmj6e_role
00000000000cc2d0 W _ZN14BooleanCircuit13PutSIMDINGateEjPtj6e_role
00000000000cbb40 W _ZN14BooleanCircuit13PutSIMDINGateEjtj6e_role
00000000000be740 T _ZN14BooleanCircuit14PutA2YCONVGateESt6vectorIjSaIjEE
00000000000b1930 T _ZN14BooleanCircuit14PutB2YCONVGateEj
00000000000b1f00 T _ZN14BooleanCircuit14PutB2YCONVGateESt6vectorIjSaIjEE
00000000000b46a0 T _ZN14BooleanCircuit14PutDummyINGateEj
00000000000c6910 T _ZN14BooleanCircuit14PutUint2FpGateESt6vectorIjSaIjEEP8UINTTypeP6FPTypej
00000000000c0430 T _ZN14BooleanCircuit14PutWideAddGateESt6vectorIS0_IjSaIjEESaIS2_EE
00000000000b1850 T _ZN14BooleanCircuit14PutY2BCONVGateEj
00000000000b1c00 T _ZN14BooleanCircuit14PutY2BCONVGateESt6vectorIjSaIjEE
00000000000bc7d0 T _ZN14BooleanCircuit15PutADDChainGateESt6vectorIjSaIjEES2_j
00000000000b27b0 T _ZN14BooleanCircuit15PutCallbackGateEP5sharejPFvP4GATEPvES4_j
00000000000b2670 T _ZN14BooleanCircuit15PutCallbackGateESt6vectorIjSaIjEEjPFvP4GATEPvES5_j
00000000000bc1a0 T _ZN14BooleanCircuit15PutCondSwapGateEP5shareS1_S1_i
00000000000bbdf0 T _ZN14BooleanCircuit15PutCondSwapGateESt6vectorIjSaIjEES2_ji
00000000000afb60 T _ZN14BooleanCircuit15PutConstantGateEmj
00000000000c77f0 T _ZN14BooleanCircuit15PutConvTypeGateEP5shareP8ConvTypeS3_j
00000000000c76a0 T _ZN14BooleanCircuit15PutConvTypeGateESt6vectorIjSaIjEEP8ConvTypeS4_j
00000000000c7a40 T _ZN14BooleanCircuit15PutGateFromFileENSt7__cxx1112basic_stringIcSt11char_traitsIcESaIcEEESt6vectorIjSaIjEEj
00000000000b9a60 T _ZN14BooleanCircuit15PutMultiMUXGateEPP5shareS2_S1_jS2_
00000000000cb0f0 W _ZN14BooleanCircuit15PutSharedINGateEhj
00000000000caff0 W _ZN14BooleanCircuit15PutSharedINGateEjj
00000000000b0f90 T _ZN14BooleanCircuit15PutSharedINGateEm
00000000000cb3c0 W _ZN14BooleanCircuit15PutSharedINGateEmj
00000000000ca7f0 W _ZN14BooleanCircuit15PutSharedINGateEPhj
00000000000ca420 W _ZN14BooleanCircuit15PutSharedINGateEPjj
00000000000ca2d0 W _ZN14BooleanCircuit15PutSharedINGateEPmj
00000000000ca570 W _ZN14BooleanCircuit15PutSharedINGateEPtj
00000000000cb1d0 W _ZN14BooleanCircuit15PutSharedINGateEtj
00000000000b0f10 T _ZN14BooleanCircuit15PutSharedINGateEv
00000000000b09c0 T _ZN14BooleanCircuit15PutSIMDCONSGateEjmj
00000000000b0ac0 T _ZN14BooleanCircuit15PutSIMDCONSGateEjPhj
00000000000b0bc0 T _ZN14BooleanCircuit15PutSIMDCONSGateEjPjj
00000000000b6ed0 T _ZN14BooleanCircuit16PutCarrySaveGateESt6vectorIjSaIjEES2_S2_jb
00000000000bc6b0 T _ZN14BooleanCircuit16PutFullAdderGateEjjj
00000000000b1310 T _ZN14BooleanCircuit16PutSharedOUTGateEP5share
00000000000b11e0 T _ZN14BooleanCircuit16PutSharedOUTGateESt6vectorIjSaIjEE
00000000000b6770 T _ZN14BooleanCircuit16PutUniversalGateEjjj
00000000000b6930 T _ZN14BooleanCircuit16PutUniversalGateEP5shareS1_j
00000000000b6810 T _ZN14BooleanCircuit16PutUniversalGateESt6vectorIjSaIjEES2_j
00000000000b9630 T _ZN14BooleanCircuit16PutVecANDMUXGateEjjj
00000000000b97b0 T _ZN14BooleanCircuit16PutVecANDMUXGateEP5shareS1_S1_
00000000000b9690 T _ZN14BooleanCircuit16PutVecANDMUXGateESt6vectorIjSaIjEES2_S2_
00000000000b0cd0 T _ZN14BooleanCircuit16PutVectorANDGateEjj
00000000000c0270 T _ZN14BooleanCircuit16UpdateLocalQueueEj
00000000000bfb50 T _ZN14BooleanCircuit17PutLUTWideANDGateESt6vectorIjSaIjEE
00000000000bfa20 T _ZN14BooleanCircuit17PutTruthTableGateEP5sharePm
00000000000b6020 T _ZN14BooleanCircuit17PutTruthTableGateESt6vectorIjSaIjEEjPm
00000000000b4a90 T _ZN14BooleanCircuit18PutDummySIMDINGateEjj
00000000000b2d00 T _ZN14BooleanCircuit18PutLeftShifterGateEP5sharej
00000000000b28f0 T _ZN14BooleanCircuit18PutLeftShifterGateESt6vectorIjSaIjEEjjj
00000000000c66d0 T _ZN14BooleanCircuit18PutLUTGateFromFileENSt7__cxx1112basic_stringIcSt11char_traitsIcESaIcEEEP5share
00000000000c5d80 T _ZN14BooleanCircuit18PutLUTGateFromFileENSt7__cxx1112basic_stringIcSt11char_traitsIcESaIcEEESt6vectorIjSaIjEE
00000000000c7a00 T _ZN14BooleanCircuit18PutUint2DoubleGateEP5share
00000000000b3ae0 T _ZN14BooleanCircuit19PadWithLeadingZerosERSt6vectorIjSaIjEES3_
00000000000b0f50 T _ZN14BooleanCircuit19PutSharedSIMDINGateEj
00000000000ca1a0 W _ZN14BooleanCircuit19PutSharedSIMDINGateEjhj
00000000000ca070 W _ZN14BooleanCircuit19PutSharedSIMDINGateEjjj
00000000000b1000 T _ZN14BooleanCircuit19PutSharedSIMDINGateEjm
00000000000cb2d0 W _ZN14BooleanCircuit19PutSharedSIMDINGateEjmj
00000000000ca940 W _ZN14BooleanCircuit19PutSharedSIMDINGateEjPhj
00000000000cae40 W _ZN14BooleanCircuit19PutSharedSIMDINGateEjPjj
00000000000caae0 W _ZN14BooleanCircuit19PutSharedSIMDINGateEjPmj
00000000000cac90 W _ZN14BooleanCircuit19PutSharedSIMDINGateEjPtj
00000000000ca6c0 W _ZN14BooleanCircuit19PutSharedSIMDINGateEjtj
00000000000b1a10 T _ZN14BooleanCircuit19PutYSwitchRolesGateEj
00000000000b2200 T _ZN14BooleanCircuit19PutYSwitchRolesGateEP5share
00000000000b1b00 T _ZN14BooleanCircuit19PutYSwitchRolesGateESt6vectorIjSaIjEE
00000000000bcff0 T _ZN14BooleanCircuit20PutHammingWeightGateEP5share
00000000000bcf40 T _ZN14BooleanCircuit20PutHammingWeightGateEP5sharej
00000000000b5460 T _ZN14BooleanCircuit21UpdateTruthTableSizesEjjj
00000000000c54b0 T _ZN14BooleanCircuit22GetInputLengthFromFileENSt7__cxx1112basic_stringIcSt11char_traitsIcESaIcEEE
00000000000c5900 T _ZN14BooleanCircuit22GetInputLengthFromFileENSt7__cxx1112basic_stringIcSt11char_traitsIcESaIcEEERjS6_
00000000000b8950 T _ZN14BooleanCircuit22PutSizeOptimizedGTGateESt6vectorIjSaIjEES2_
00000000000b1080 T _ZN14BooleanCircuit22PutYaoSharedSIMDINGateEj10yao_fields
00000000000b1140 T _ZN14BooleanCircuit22PutYaoSharedSIMDINGateEjP10yao_fieldsj
00000000000c0350 T _ZN14BooleanCircuit22UpdateInteractiveQueueEj
00000000000b8a20 T _ZN14BooleanCircuit23PutDepthOptimizedGTGateESt6vectorIjSaIjEES2_
00000000000bcc40 T _ZN14BooleanCircuit23PutHammingWeightGateRecEPjj
00000000000b6b20 T _ZN14BooleanCircuit23PutSizeOptimizedAddGateESt6vectorIjSaIjEES2_i
00000000000b6630 T _ZN14BooleanCircuit23PutUniversalGateCircuitEjjj
00000000000bacf0 T _ZN14BooleanCircuit24PutBarrelLeftShifterGateEP5shareS1_
00000000000ba740 T _ZN14BooleanCircuit24PutBarrelLeftShifterGateESt6vectorIjSaIjEES2_j
00000000000bb520 T _ZN14BooleanCircuit24PutDepthOptimizedAddGateESt6vectorIjSaIjEES2_ib
00000000000bb330 T _ZN14BooleanCircuit25PutBarrelRightShifterGateEP5shareS1_
00000000000baee0 T _ZN14BooleanCircuit25PutBarrelRightShifterGateESt6vectorIjSaIjEES2_
00000000000b2520 T _ZN14BooleanCircuit27PutStructurizedCombinerGateEP5sharejjj
00000000000b2400 T _ZN14BooleanCircuit27PutStructurizedCombinerGateESt6vectorIjSaIjEEjjj
00000000000c90c0 T _ZN14BooleanCircuit27PutUniversalCircuitFromFileENSt7__cxx1112basic_stringIcSt11char_traitsIcESaIcEEES5_St6vectorIjSaIjEEj
00000000000bd300 T _ZN14BooleanCircuit28PutTruthTableMultiOutputGateEP5sharejPm
00000000000bd020 T _ZN14BooleanCircuit28PutTruthTableMultiOutputGateESt6vectorIjSaIjEEjPm
00000000000b3ed0 T _ZN14BooleanCircuit4InitEv
00000000000b3790 T _ZN14BooleanCircuit5ResetEv
00000000000b0cc0 T _ZN14BooleanCircuit7CleanupEv
00000000000c0090 T _ZN14BooleanCircuit9PutEQGateEP5shareS1_
00000000000bfe20 T _ZN14BooleanCircuit9PutEQGateESt6vectorIjSaIjEES2_
00000000000c81d0 T _ZN14BooleanCircuit9PutFPGateENSt7__cxx1112basic_stringIcSt11char_traitsIcESaIcEEESt6vectorIjSaIjEEhj
00000000000c8640 T _ZN14BooleanCircuit9PutFPGateENSt7__cxx1112basic_stringIcSt11char_traitsIcESaIcEEESt6vectorIjSaIjEES8_hj
00000000000c8e30 T _ZN14BooleanCircuit9PutFPGateEP5share4op_thj13fp_op_setting
00000000000c8ac0 T _ZN14BooleanCircuit9PutFPGateEP5shareS1_4op_thj13fp_op_setting
00000000000bf840 T _ZN14BooleanCircuit9PutGTGateEP5shareS1_
00000000000bf720 T _ZN14BooleanCircuit9PutGTGateESt6vectorIjSaIjEES2_
00000000000b4470 T _ZN14BooleanCircuit9PutINGateE6e_role
00000000000cbfd0 W _ZN14BooleanCircuit9PutINGateEhj6e_role
00000000000cc080 W _ZN14BooleanCircuit9PutINGateEjj6e_role
00000000000b47e0 T _ZN14BooleanCircuit9PutINGateEm6e_role
00000000000cbe10 W _ZN14BooleanCircuit9PutINGateEmj6e_role
00000000000cc150 W _ZN14BooleanCircuit9PutINGateEPhj6e_role
00000000000ccd00 W _ZN14BooleanCircuit9PutINGateEPjj6e_role
00000000000cca00 W _ZN14BooleanCircuit9PutINGateEPmj6e_role
00000000000ccb80 W _ZN14BooleanCircuit9PutINGateEPtj6e_role
00000000000cbef0 W _ZN14BooleanCircuit9PutINGateEtj6e_role
00000000000b8d40 T _ZN14BooleanCircuit9PutORGateEjj
00000000000b8f50 T _ZN14BooleanCircuit9PutORGateEP5shareS1_
00000000000b8e30 T _ZN14BooleanCircuit9PutORGateESt6vectorIjSaIjEES2_
00000000000978d0 W _ZN14BooleanCircuitD0Ev
0000000000097d20 W _ZN14BooleanCircuitD1Ev
0000000000097d20 W _ZN14BooleanCircuitD2Ev
00000000000a7040 T _ZN16YaoClientSharing10InitClientEv
00000000000a8ad0 T _ZN16YaoClientSharing11AssignInputER10CBitVector
00000000000a5fe0 T _ZN16YaoClientSharing12InitNewLayerEv
00000000000a91d0 W _ZN16YaoClientSharing12sharing_typeEv
00000000000a7650 T _ZN16YaoClientSharing13GetDataToSendERSt6vectorIPhSaIS1_EERS0_ImSaImEE
00000000000a62f0 T _ZN16YaoClientSharing15EvaluateANDGateEP4GATE
00000000000a6100 T _ZN16YaoClientSharing15EvaluateXORGateEP4GATE
00000000000a5c20 T _ZN16YaoClientSharing15InstantiateGateEP4GATE
00000000000a6a30 T _ZN16YaoClientSharing16EvaluateSIMDGateEj
00000000000a6480 T _ZN16YaoClientSharing16EvaluateUNIVGateEP4GATE
00000000000a5c50 T _ZN16YaoClientSharing16FinishSetupPhaseEP8ABYSetup
00000000000a60e0 T _ZN16YaoClientSharing17PerformSetupPhaseEP8ABYSetup
00000000000a6e30 T _ZN16YaoClientSharing17PrepareSetupPhaseEP8ABYSetup
00000000000a7300 T _ZN16YaoClientSharing17ReceiveClientKeysEj
00000000000a7290 T _ZN16YaoClientSharing17ReceiveServerKeysEj
00000000000a7170 T _ZN16YaoClientSharing18FinishCircuitLayerEv
00000000000a6010 T _ZN16YaoClientSharing18PrepareOnlinePhaseEv
00000000000a77f0 T _ZN16YaoClientSharing19GetBuffersToReceiveERSt6vectorIPhSaIS1_EERS0_ImSaImEE
00000000000a61d0 T _ZN16YaoClientSharing20EvaluateGarbledTableEP4GATEjS1_S1_
00000000000a6840 T _ZN16YaoClientSharing21AssignClientInputKeysEv
00000000000a6720 T _ZN16YaoClientSharing21AssignServerInputKeysEv
00000000000a63d0 T _ZN16YaoClientSharing21EvaluateUniversalGateEP4GATEjS1_S1_
00000000000a7390 T _ZN16YaoClientSharing22EvaluateConversionGateEj
00000000000a7a30 T _ZN16YaoClientSharing23EvaluateLocalOperationsEj
00000000000a6560 T _ZN16YaoClientSharing24EvaluateClientOutputGateEj
00000000000a6690 T _ZN16YaoClientSharing24EvaluateServerOutputGateEP4GATE
00000000000a8070 T _ZN16YaoClientSharing29EvaluateInteractiveOperationsEj
00000000000a6020 T _ZN16YaoClientSharing36ReceiveGarbledCircuitAndOutputSharesEP8ABYSetup
00000000000a5c60 T _ZN16YaoClientSharing5ResetEv
00000000000a8df0 T _ZN16YaoClientSharing9GetOutputER10CBitVector
00000000000a5fc0 T _ZN16YaoClientSharingD0Ev
00000000000a5e40 T _ZN16YaoClientSharingD1Ev
00000000000a5e40 T _ZN16YaoClientSharingD2Ev
00000000000a9830 T _ZN16YaoServerSharing10InitServerEv
00000000000ad450 T _ZN16YaoServerSharing11AssignInputER10CBitVector
00000000000a9820 T _ZN16YaoServerSharing12InitNewLayerEv
00000000000abcd0 T _ZN16YaoServerSharing12PrecomputeGCERSt5dequeIjSaIjEEP8ABYSetup
00000000000ae350 W _ZN16YaoServerSharing12sharing_typeEv
00000000000ac200 T _ZN16YaoServerSharing13GetDataToSendERSt6vectorIPhSaIS1_EERS0_ImSaImEE
00000000000aa160 T _ZN16YaoServerSharing15EvaluateANDGateEP4GATEP8ABYSetup
00000000000a9bf0 T _ZN16YaoServerSharing15EvaluateXORGateEP4GATE
00000000000a97d0 T _ZN16YaoServerSharing15InstantiateGateEP4GATE
00000000000aafc0 T _ZN16YaoServerSharing16EvaluateSIMDGateEj
00000000000acf00 T _ZN16YaoServerSharing16FinishSetupPhaseEP8ABYSetup
00000000000ab6f0 T _ZN16YaoServerSharing17EvaluateInputGateEj
00000000000ae330 T _ZN16YaoServerSharing17PerformSetupPhaseEP8ABYSetup
00000000000ac550 T _ZN16YaoServerSharing17PrepareSetupPhaseEP8ABYSetup
00000000000aa7f0 T _ZN16YaoServerSharing18AssignOutputSharesEv
00000000000a9d60 T _ZN16YaoServerSharing18CreateGarbledTableEP4GATEjS1_S1_
00000000000aa740 T _ZN16YaoServerSharing18EvaluateOutputGateEP4GATE
00000000000aa900 T _ZN16YaoServerSharing18FinishCircuitLayerEv
00000000000a91e0 T _ZN16YaoServerSharing18PrepareOnlinePhaseEv
00000000000ab550 T _ZN16YaoServerSharing18SendClientInputKeyEj
00000000000a9950 T _ZN16YaoServerSharing18SendServerInputKeyEj
00000000000aa2e0 T _ZN16YaoServerSharing19GarbleUniversalGateEP4GATEjS1_S1_j
00000000000ac3e0 T _ZN16YaoServerSharing19GetBuffersToReceiveERSt6vectorIPhSaIS1_EERS0_ImSaImEE
00000000000aaf60 T _ZN16YaoServerSharing20CreateRandomWireKeysER10CBitVectorj
00000000000aa660 T _ZN16YaoServerSharing20EvaluateConstantGateEP4GATE
00000000000ab5c0 T _ZN16YaoServerSharing20SendConversionValuesEj
00000000000a9af0 T _ZN16YaoServerSharing21EvaluateInversionGateEP4GATE
00000000000aa550 T _ZN16YaoServerSharing21EvaluateUniversalGateEP4GATE
00000000000ab980 T _ZN16YaoServerSharing22EvaluateConversionGateEj
00000000000ad770 T _ZN16YaoServerSharing23EvaluateLocalOperationsEj
00000000000aca90 T _ZN16YaoServerSharing25CollectClientOutputSharesEv
00000000000ae040 T _ZN16YaoServerSharing27CreateAndSendGarbledCircuitEP8ABYSetup
00000000000ada10 T _ZN16YaoServerSharing29EvaluateInteractiveOperationsEj
00000000000a9250 T _ZN16YaoServerSharing5ResetEv
00000000000accc0 T _ZN16YaoServerSharing9GetOutputER10CBitVector
0000000000062dc0 W _ZN16YaoServerSharingC1E9e_sharing6e_rolejP10ABYCircuitP6cryptoRKNSt7__cxx1112basic_stringIcSt11char_traitsIcESaIcEEE
0000000000062dc0 W _ZN16YaoServerSharingC2E9e_sharing6e_rolejP10ABYCircuitP6cryptoRKNSt7__cxx1112basic_stringIcSt11char_traitsIcESaIcEEE
00000000000a9710 T _ZN16YaoServerSharingD0Ev
00000000000a9490 T _ZN16YaoServerSharingD1Ev
00000000000a9490 T _ZN16YaoServerSharingD2Ev
00000000000703e0 W _ZN17ArithmeticCircuit10PutA2YGateEP5share
000000000006dfb0 T _ZN17ArithmeticCircuit10PutADDGateEjj
000000000006dff0 T _ZN17ArithmeticCircuit10PutADDGateEP5shareS1_
000000000006fce0 W _ZN17ArithmeticCircuit10PutANDGateEP5shareS1_
000000000006e660 T _ZN17ArithmeticCircuit10PutB2AGateEP5share
000000000006e780 T _ZN17ArithmeticCircuit10PutB2AGateESt6vectorIjSaIjEE
0000000000070300 W _ZN17ArithmeticCircuit10PutB2YGateEP5share
000000000006cad0 T _ZN17ArithmeticCircuit10PutINVGateEj
000000000006de80 T _ZN17ArithmeticCircuit10PutMULGateEjj
000000000006df20 T _ZN17ArithmeticCircuit10PutMULGateEP5shareS1_
0000000000070060 W _ZN17ArithmeticCircuit10PutMUXGateEP5shareS1_S1_
000000000006f130 T _ZN17ArithmeticCircuit10PutOUTGateEj6e_role
000000000006f3e0 T _ZN17ArithmeticCircuit10PutOUTGateEP5share6e_role
000000000006e080 T _ZN17ArithmeticCircuit10PutSUBGateEjj
000000000006e0e0 T _ZN17ArithmeticCircuit10PutSUBGateEP5shareS1_
000000000006fdc0 W _ZN17ArithmeticCircuit10PutXORGateEP5shareS1_
0000000000070220 W _ZN17ArithmeticCircuit10PutY2BGateEP5share
000000000006d190 T _ZN17ArithmeticCircuit11PutCONSGateEmj
000000000006ca40 T _ZN17ArithmeticCircuit11PutCONSGateEPhj
000000000006ca60 T _ZN17ArithmeticCircuit11PutCONSGateEPjj
000000000006e520 T _ZN17ArithmeticCircuit11PutCONVGateESt6vectorIjSaIjEE
000000000006fc00 W _ZN17ArithmeticCircuit13PutANDVecGateEP5shareS1_
000000000006ed60 T _ZN17ArithmeticCircuit13PutSIMDINGateEj6e_role
0000000000071590 W _ZN17ArithmeticCircuit13PutSIMDINGateEjhj6e_role
0000000000071730 W _ZN17ArithmeticCircuit13PutSIMDINGateEjjj6e_role
00000000000721a0 W _ZN17ArithmeticCircuit13PutSIMDINGateEjmj6e_role
0000000000071c50 W _ZN17ArithmeticCircuit13PutSIMDINGateEjPhj6e_role
0000000000071e90 W _ZN17ArithmeticCircuit13PutSIMDINGateEjPjj6e_role
0000000000071d70 W _ZN17ArithmeticCircuit13PutSIMDINGateEjPmj6e_role
0000000000071fb0 W _ZN17ArithmeticCircuit13PutSIMDINGateEjPtj6e_role
0000000000071660 W _ZN17ArithmeticCircuit13PutSIMDINGateEjtj6e_role
000000000006ec50 T _ZN17ArithmeticCircuit14PutDummyINGateEj
000000000006ce10 T _ZN17ArithmeticCircuit15PutCallbackGateEP5sharejPFvP4GATEPvES4_j
00000000000704c0 W _ZN17ArithmeticCircuit15PutCondSwapGateEP5shareS1_S1_i
000000000006cb10 T _ZN17ArithmeticCircuit15PutConstantGateEmj
000000000006dd00 T _ZN17ArithmeticCircuit15PutMULCONSTGateEjj
000000000006ddf0 T _ZN17ArithmeticCircuit15PutMULCONSTGateEP5shareS1_
0000000000070800 W _ZN17ArithmeticCircuit15PutSharedINGateEhj
0000000000071270 W _ZN17ArithmeticCircuit15PutSharedINGateEjj
00000000000705e0 W _ZN17ArithmeticCircuit15PutSharedINGateEmj
00000000000708b0 W _ZN17ArithmeticCircuit15PutSharedINGateEPhj
0000000000070a50 W _ZN17ArithmeticCircuit15PutSharedINGateEPjj
0000000000070b20 W _ZN17ArithmeticCircuit15PutSharedINGateEPmj
0000000000070980 W _ZN17ArithmeticCircuit15PutSharedINGateEPtj
0000000000070750 W _ZN17ArithmeticCircuit15PutSharedINGateEtj
000000000006e170 T _ZN17ArithmeticCircuit15PutSharedINGateEv
000000000006d030 T _ZN17ArithmeticCircuit15PutSIMDCONSGateEjmj
000000000006cb50 T _ZN17ArithmeticCircuit15PutSIMDCONSGateEjPhj
000000000006d2f0 T _ZN17ArithmeticCircuit15PutSIMDCONSGateEjPjj
000000000006e320 T _ZN17ArithmeticCircuit16PutSharedOUTGateEP5share
000000000006e1f0 T _ZN17ArithmeticCircuit16PutSharedOUTGateESt6vectorIjSaIjEE
0000000000070140 W _ZN17ArithmeticCircuit16PutUniversalGateEP5shareS1_j
000000000006f480 T _ZN17ArithmeticCircuit16UpdateLocalQueueEj
000000000006fae0 W _ZN17ArithmeticCircuit17PutTruthTableGateEP5sharePm
000000000006f020 T _ZN17ArithmeticCircuit18PutDummySIMDINGateEjj
000000000006e1b0 T _ZN17ArithmeticCircuit19PutSharedSIMDINGateEj
0000000000071030 W _ZN17ArithmeticCircuit19PutSharedSIMDINGateEjhj
0000000000070690 W _ZN17ArithmeticCircuit19PutSharedSIMDINGateEjjj
00000000000710f0 W _ZN17ArithmeticCircuit19PutSharedSIMDINGateEjmj
0000000000070bf0 W _ZN17ArithmeticCircuit19PutSharedSIMDINGateEjPhj
0000000000070f20 W _ZN17ArithmeticCircuit19PutSharedSIMDINGateEjPjj
0000000000070e10 W _ZN17ArithmeticCircuit19PutSharedSIMDINGateEjPmj
0000000000070d00 W _ZN17ArithmeticCircuit19PutSharedSIMDINGateEjPtj
00000000000711b0 W _ZN17ArithmeticCircuit19PutSharedSIMDINGateEjtj
000000000006fa10 T _ZN17ArithmeticCircuit22UpdateInteractiveQueueEj
000000000006fb70 W _ZN17ArithmeticCircuit28PutTruthTableMultiOutputGateEP5sharejPm
000000000006e860 T _ZN17ArithmeticCircuit4InitEv
000000000006f550 T _ZN17ArithmeticCircuit5ResetEv
000000000006dcf0 T _ZN17ArithmeticCircuit7CleanupEv
000000000006ff80 W _ZN17ArithmeticCircuit9PutEQGateEP5shareS1_
000000000006fea0 W _ZN17ArithmeticCircuit9PutGTGateEP5shareS1_
000000000006e990 T _ZN17ArithmeticCircuit9PutINGateE6e_role
0000000000072340 W _ZN17ArithmeticCircuit9PutINGateEhj6e_role
00000000000720d0 W _ZN17ArithmeticCircuit9PutINGateEjj6e_role
0000000000071800 W _ZN17ArithmeticCircuit9PutINGateEmj6e_role
00000000000718d0 W _ZN17ArithmeticCircuit9PutINGateEPhj6e_role
0000000000071a90 W _ZN17ArithmeticCircuit9PutINGateEPjj6e_role
0000000000071b70 W _ZN17ArithmeticCircuit9PutINGateEPmj6e_role
00000000000719b0 W _ZN17ArithmeticCircuit9PutINGateEPtj6e_role
0000000000072270 W _ZN17ArithmeticCircuit9PutINGateEtj6e_role
000000000005e950 W _ZN17ArithmeticCircuitD0Ev
0000000000062a40 W _ZN17ArithmeticCircuitD1Ev
0000000000062a40 W _ZN17ArithmeticCircuitD2Ev
00000000000c9e80 W _ZN4FP6410getExpBiasEv
00000000000c9e70 W _ZN4FP6410getExpBitsEv
00000000000c9e60 W _ZN4FP6414getNumOfDigitsEv
00000000000c9e50 W _ZN4FP647getBaseEv
00000000000de9f0 W _ZN5boost10wrapexceptINS_4asio21invalid_service_ownerEED0Ev
00000000000dd9f0 W _ZN5boost10wrapexceptINS_4asio21invalid_service_ownerEED1Ev
00000000000dd9f0 W _ZN5boost10wrapexceptINS_4asio21invalid_service_ownerEED2Ev
00000000000deb60 W _ZN5boost10wrapexceptINS_4asio22service_already_existsEED0Ev
00000000000ddb10 W _ZN5boost10wrapexceptINS_4asio22service_already_existsEED1Ev
00000000000ddb10 W _ZN5boost10wrapexceptINS_4asio22service_already_existsEED2Ev
00000000000decd0 W _ZN5boost10wrapexceptINS_4asio2ip16bad_address_castEED0Ev
00000000000dde60 W _ZN5boost10wrapexceptINS_4asio2ip16bad_address_castEED1Ev
00000000000dde60 W _ZN5boost10wrapexceptINS_4asio2ip16bad_address_castEED2Ev
00000000000de880 W _ZN5boost10wrapexceptINS_4asio9execution12bad_executorEED0Ev
00000000000ddcf0 W _ZN5boost10wrapexceptINS_4asio9execution12bad_executorEED1Ev
00000000000ddcf0 W _ZN5boost10wrapexceptINS_4asio9execution12bad_executorEED2Ev
00000000000defe0 W _ZN5boost10wrapexceptINS_6system12system_errorEED0Ev
00000000000def50 W _ZN5boost10wrapexceptINS_6system12system_errorEED1Ev
00000000000def50 W _ZN5boost10wrapexceptINS_6system12system_errorEED2Ev
00000000000503b9 W _ZN5boost15throw_exceptionINS_6system12system_errorEEEvRKT_
00000000000e0db0 W _ZN5boost16exception_detail20copy_boost_exceptionEPNS_9exceptionEPKS1_
00000000000dcd40 W _ZN5boost4asio17execution_context7service11notify_forkENS1_10fork_eventE
00000000000e1aa0 W _ZN5boost4asio17execution_contextD1Ev
00000000000e1aa0 W _ZN5boost4asio17execution_contextD2Ev
00000000000ddc60 W _ZN5boost4asio19multiple_exceptionsD0Ev
00000000000ddc30 W _ZN5boost4asio19multiple_exceptionsD1Ev
00000000000ddc30 W _ZN5boost4asio19multiple_exceptionsD2Ev
00000000000dd970 W _ZN5boost4asio21invalid_service_ownerD0Ev
00000000000dd950 W _ZN5boost4asio21invalid_service_ownerD1Ev
00000000000dd950 W _ZN5boost4asio21invalid_service_ownerD2Ev
00000000000dd9c0 W _ZN5boost4asio22service_already_existsD0Ev
00000000000dd9a0 W _ZN5boost4asio22service_already_existsD1Ev
00000000000dd9a0 W _ZN5boost4asio22service_already_existsD2Ev
00000000000dde30 W _ZN5boost4asio2ip16bad_address_castD0Ev
00000000000dde10 W _ZN5boost4asio2ip16bad_address_castD1Ev
00000000000dde10 W _ZN5boost4asio2ip16bad_address_castD2Ev
00000000000e66d0 W _ZN5boost4asio2ip22basic_resolver_resultsINS1_3tcpEE6createEP8addrinfoRKNSt7__cxx1112basic_stringIcSt11char_traitsIcESaIcEEESE_
00000000000e5110 W _ZN5boost4asio2iplsIcSt11char_traitsIcEEERSt13basic_ostreamIT_T0_ES9_RKNS1_7addressE
00000000000e5450 W _ZN5boost4asio2iplsIcSt11char_traitsIcENS1_3tcpEEERSt13basic_ostreamIT_T0_ESA_RKNS1_14basic_endpointIT1_EE
0000000000344fdc u _ZN5boost4asio6detail10call_stackINS1_14thread_contextENS1_16thread_info_baseEE4top_E
00000000000dd390 W _ZN5boost4asio6detail10service_idINS1_13epoll_reactorEED1Ev
00000000000dd390 W _ZN5boost4asio6detail10service_idINS1_13epoll_reactorEED2Ev
00000000000dd3b0 W _ZN5boost4asio6detail10service_idINS1_16resolver_serviceINS0_2ip3tcpEEEED1Ev
00000000000dd3b0 W _ZN5boost4asio6detail10service_idINS1_16resolver_serviceINS0_2ip3tcpEEEED2Ev
00000000000dd3a0 W _ZN5boost4asio6detail10service_idINS1_23reactive_socket_serviceINS0_2ip3tcpEEEED1Ev
00000000000dd3a0 W _ZN5boost4asio6detail10service_idINS1_23reactive_socket_serviceINS0_2ip3tcpEEEED2Ev
00000000000dd380 W _ZN5boost4asio6detail10service_idINS1_9schedulerEED1Ev
00000000000dd380 W _ZN5boost4asio6detail10service_idINS1_9schedulerEED2Ev
00000000000e2ce0 W _ZN5boost4asio6detail10socket_ops14get_last_errorERNS_6system10error_codeEb
00000000000df680 W _ZN5boost4asio6detail11executor_opINS1_17executor_functionESaIvENS1_19scheduler_operationEE11do_completeEPvPS5_RKNS_6system10error_codeEm
00000000000e3830 W _ZN5boost4asio6detail11object_poolINS1_13epoll_reactor16descriptor_stateEED1Ev
00000000000e3830 W _ZN5boost4asio6detail11object_poolINS1_13epoll_reactor16descriptor_stateEED2Ev
00000000000e4b10 W _ZN5boost4asio6detail12posix_thread4funcINS1_9scheduler15thread_functionEE3runEv
00000000000dd610 W _ZN5boost4asio6detail12posix_thread4funcINS1_9scheduler15thread_functionEED0Ev
00000000000dd350 W _ZN5boost4asio6detail12posix_thread4funcINS1_9scheduler15thread_functionEED1Ev
00000000000dd350 W _ZN5boost4asio6detail12posix_thread4funcINS1_9scheduler15thread_functionEED2Ev
00000000000e3190 W _ZN5boost4asio6detail13epoll_reactor11notify_forkENS0_17execution_context10fork_eventE
00000000000e2400 W _ZN5boost4asio6detail13epoll_reactor16descriptor_state11do_completeEPvPNS1_19scheduler_operationERKNS_6system10error_codeEm
00000000000e3580 W _ZN5boost4asio6detail13epoll_reactor19register_descriptorEiRPNS2_16descriptor_stateE
00000000000e1b30 W _ZN5boost4asio6detail13epoll_reactor21deregister_descriptorEiRPNS2_16descriptor_stateEb
00000000000e2190 W _ZN5boost4asio6detail13epoll_reactor32perform_io_cleanup_on_block_exitD1Ev
00000000000e2190 W _ZN5boost4asio6detail13epoll_reactor32perform_io_cleanup_on_block_exitD2Ev
00000000000e1e50 W _ZN5boost4asio6detail13epoll_reactor3runElRNS1_8op_queueINS1_19scheduler_operationEEE
00000000000e3ea0 W _ZN5boost4asio6detail13epoll_reactor8shutdownEv
00000000000de660 W _ZN5boost4asio6detail13epoll_reactorD0Ev
00000000000de450 W _ZN5boost4asio6detail13epoll_reactorD1Ev
00000000000de450 W _ZN5boost4asio6detail13epoll_reactorD2Ev
00000000000e2d80 W _ZN5boost4asio6detail13socket_holderD1Ev
00000000000e2d80 W _ZN5boost4asio6detail13socket_holderD2Ev
00000000000e37b0 W _ZN5boost4asio6detail14do_throw_errorERKNS_6system10error_codeE
00000000000e2fe0 W _ZN5boost4asio6detail14do_throw_errorERKNS_6system10error_codeEPKc
00000000000e59f0 W _ZN5boost4asio6detail14io_object_implINS1_16resolver_serviceINS0_2ip3tcpEEENS0_9execution12any_executorIJNS7_12context_as_tIRNS0_17execution_contextEEENS7_6detail8blocking7never_tILi0EEENS7_11prefer_onlyINSE_10possibly_tILi0EEEEENSH_INSD_16outstanding_work9tracked_tILi0EEEEENSH_INSL_11untracked_tILi0EEEEENSH_INSD_12relationship6fork_tILi0EEEEENSH_INSS_14continuation_tILi0EEEEEEEEED1Ev
00000000000e59f0 W _ZN5boost4asio6detail14io_object_implINS1_16resolver_serviceINS0_2ip3tcpEEENS0_9execution12any_executorIJNS7_12context_as_tIRNS0_17execution_contextEEENS7_6detail8blocking7never_tILi0EEENS7_11prefer_onlyINSE_10possibly_tILi0EEEEENSH_INSD_16outstanding_work9tracked_tILi0EEEEENSH_INSL_11untracked_tILi0EEEEENSH_INSD_12relationship6fork_tILi0EEEEENSH_INSS_14continuation_tILi0EEEEEEEEED2Ev
0000000000000000 u _ZN5boost4asio6detail15keyword_tss_ptrINS1_10call_stackINS1_14thread_contextENS1_16thread_info_baseEE7contextEE6value_E
00000000000dfd60 W _ZN5boost4asio6detail16resolver_serviceINS0_2ip3tcpEE11notify_forkENS0_17execution_context10fork_eventE
00000000000dfee0 W _ZN5boost4asio6detail16resolver_serviceINS0_2ip3tcpEE8shutdownEv
00000000000e08b0 W _ZN5boost4asio6detail16resolver_serviceINS0_2ip3tcpEED0Ev
00000000000e03c0 W _ZN5boost4asio6detail16resolver_serviceINS0_2ip3tcpEED1Ev
00000000000e03c0 W _ZN5boost4asio6detail16resolver_serviceINS0_2ip3tcpEED2Ev
00000000000e1470 W _ZN5boost4asio6detail16service_registry14do_use_serviceERKNS0_17execution_context7service3keyEPFPS4_PvES9_
00000000000e39b0 W _ZN5boost4asio6detail16service_registry6createINS1_13epoll_reactorENS0_17execution_contextEEEPNS5_7serviceEPv
00000000000e4ea0 W _ZN5boost4asio6detail16service_registry6createINS1_16resolver_serviceINS0_2ip3tcpEEENS0_10io_contextEEEPNS0_17execution_context7serviceEPv
00000000000e15c0 W _ZN5boost4asio6detail16service_registry6createINS1_23reactive_socket_serviceINS0_2ip3tcpEEENS0_10io_contextEEEPNS0_17execution_context7serviceEPv
00000000000e1830 W _ZN5boost4asio6detail16service_registry6createINS1_23reactive_socket_serviceINS0_2ip3tcpEEENS0_17execution_contextEEEPNS8_7serviceEPv
00000000000e4e50 W _ZN5boost4asio6detail16service_registry6createINS1_9schedulerENS0_17execution_contextEEEPNS5_7serviceEPv
00000000000dd400 W _ZN5boost4asio6detail23reactive_socket_serviceINS0_2ip3tcpEE8shutdownEv
00000000000dd650 W _ZN5boost4asio6detail23reactive_socket_serviceINS0_2ip3tcpEED0Ev
00000000000dd360 W _ZN5boost4asio6detail23reactive_socket_serviceINS0_2ip3tcpEED1Ev
00000000000dd360 W _ZN5boost4asio6detail23reactive_socket_serviceINS0_2ip3tcpEED2Ev
00000000000e3060 W _ZN5boost4asio6detail26eventfd_select_interrupter16open_descriptorsEv
00000000000e2eb0 W _ZN5boost4asio6detail28reactive_socket_service_base7destroyERNS2_24base_implementation_typeE
0000000000344fda u _ZN5boost4asio6detail30execution_context_service_baseINS1_13epoll_reactorEE2idE
0000000000344fd8 u _ZN5boost4asio6detail30execution_context_service_baseINS1_16resolver_serviceINS0_2ip3tcpEEEE2idE
0000000000344fd9 u _ZN5boost4asio6detail30execution_context_service_baseINS1_23reactive_socket_serviceINS0_2ip3tcpEEEE2idE
0000000000344fdb u _ZN5boost4asio6detail30execution_context_service_baseINS1_9schedulerEE2idE
00000000000dd370 W _ZN5boost4asio6detail7tss_ptrINS1_10call_stackINS1_14thread_contextENS1_16thread_info_baseEE7contextEED1Ev
00000000000dd370 W _ZN5boost4asio6detail7tss_ptrINS1_10call_stackINS1_14thread_contextENS1_16thread_info_baseEE7contextEED2Ev
00000000000e3e20 W _ZN5boost4asio6detail8op_queueINS1_19scheduler_operationEED1Ev
00000000000e3e20 W _ZN5boost4asio6detail8op_queueINS1_19scheduler_operationEED2Ev
00000000000e2880 W _ZN5boost4asio6detail9scheduler12task_cleanupD1Ev
00000000000e2880 W _ZN5boost4asio6detail9scheduler12task_cleanupD2Ev
00000000000e2980 W _ZN5boost4asio6detail9scheduler12work_cleanupD1Ev
00000000000e2980 W _ZN5boost4asio6detail9scheduler12work_cleanupD2Ev
00000000000e2b20 W _ZN5boost4asio6detail9scheduler25capture_current_exceptionEv
00000000000e4140 W _ZN5boost4asio6detail9scheduler3runERNS_6system10error_codeE
00000000000de0c0 W _ZN5boost4asio6detail9scheduler8shutdownEv
00000000000e4b40 W _ZN5boost4asio6detail9schedulerC1ERNS0_17execution_contextEib
00000000000e4b40 W _ZN5boost4asio6detail9schedulerC2ERNS0_17execution_contextEib
00000000000df900 W _ZN5boost4asio6detail9schedulerD0Ev
00000000000df710 W _ZN5boost4asio6detail9schedulerD1Ev
00000000000df710 W _ZN5boost4asio6detail9schedulerD2Ev
00000000000ddcc0 W _ZN5boost4asio9execution12bad_executorD0Ev
00000000000ddca0 W _ZN5boost4asio9execution12bad_executorD1Ev
00000000000ddca0 W _ZN5boost4asio9execution12bad_executorD2Ev
00000000000dcc10 W _ZN5boost4asio9execution6detail17any_executor_base10equal_voidERKS3_S5_
00000000000e6f30 W _ZN5boost4asio9execution6detail17any_executor_base10execute_exINS0_10io_context19basic_executor_typeISaIvELj0EEEEEvRKS3_ONS0_6detail17executor_functionE
00000000000e7220 W _ZN5boost4asio9execution6detail17any_executor_base10execute_exINS0_10io_context19basic_executor_typeISaIvELj4EEEEEvRKS3_ONS0_6detail17executor_functionE
00000000000dcdc0 W _ZN5boost4asio9execution6detail17any_executor_base10require_fnINS1_12any_executorIJNS1_12context_as_tIRNS0_17execution_contextEEENS2_8blocking7never_tILi0EEENS1_11prefer_onlyINSA_10possibly_tILi0EEEEENSD_INS2_16outstanding_work9tracked_tILi0EEEEENSD_INSH_11untracked_tILi0EEEEENSD_INS2_12relationship6fork_tILi0EEEEENSD_INSO_14continuation_tILi0EEEEEEEENS0_10io_context19basic_executor_typeISaIvELj0EEES9_EET_PKvS12_
00000000000dce20 W _ZN5boost4asio9execution6detail17any_executor_base10require_fnINS1_12any_executorIJNS1_12context_as_tIRNS0_17execution_contextEEENS2_8blocking7never_tILi0EEENS1_11prefer_onlyINSA_10possibly_tILi0EEEEENSD_INS2_16outstanding_work9tracked_tILi0EEEEENSD_INSH_11untracked_tILi0EEEEENSD_INS2_12relationship6fork_tILi0EEEEENSD_INSO_14continuation_tILi0EEEEEEEENS0_10io_context19basic_executor_typeISaIvELj0EEESC_EET_PKvS12_
00000000000dcea0 W _ZN5boost4asio9execution6detail17any_executor_base10require_fnINS1_12any_executorIJNS1_12context_as_tIRNS0_17execution_contextEEENS2_8blocking7never_tILi0EEENS1_11prefer_onlyINSA_10possibly_tILi0EEEEENSD_INS2_16outstanding_work9tracked_tILi0EEEEENSD_INSH_11untracked_tILi0EEEEENSD_INS2_12relationship6fork_tILi0EEEEENSD_INSO_14continuation_tILi0EEEEEEEENS0_10io_context19basic_executor_typeISaIvELj0EEESG_EET_PKvS12_
00000000000dcf10 W _ZN5boost4asio9execution6detail17any_executor_base10require_fnINS1_12any_executorIJNS1_12context_as_tIRNS0_17execution_contextEEENS2_8blocking7never_tILi0EEENS1_11prefer_onlyINSA_10possibly_tILi0EEEEENSD_INS2_16outstanding_work9tracked_tILi0EEEEENSD_INSH_11untracked_tILi0EEEEENSD_INS2_12relationship6fork_tILi0EEEEENSD_INSO_14continuation_tILi0EEEEEEEENS0_10io_context19basic_executor_typeISaIvELj0EEESK_EET_PKvS12_
00000000000dcf40 W _ZN5boost4asio9execution6detail17any_executor_base10require_fnINS1_12any_executorIJNS1_12context_as_tIRNS0_17execution_contextEEENS2_8blocking7never_tILi0EEENS1_11prefer_onlyINSA_10possibly_tILi0EEEEENSD_INS2_16outstanding_work9tracked_tILi0EEEEENSD_INSH_11untracked_tILi0EEEEENSD_INS2_12relationship6fork_tILi0EEEEENSD_INSO_14continuation_tILi0EEEEEEEENS0_10io_context19basic_executor_typeISaIvELj0EEESN_EET_PKvS12_
00000000000dcfb0 W _ZN5boost4asio9execution6detail17any_executor_base10require_fnINS1_12any_executorIJNS1_12context_as_tIRNS0_17execution_contextEEENS2_8blocking7never_tILi0EEENS1_11prefer_onlyINSA_10possibly_tILi0EEEEENSD_INS2_16outstanding_work9tracked_tILi0EEEEENSD_INSH_11untracked_tILi0EEEEENSD_INS2_12relationship6fork_tILi0EEEEENSD_INSO_14continuation_tILi0EEEEEEEENS0_10io_context19basic_executor_typeISaIvELj0EEESR_EET_PKvS12_
00000000000dd020 W _ZN5boost4asio9execution6detail17any_executor_base10require_fnINS1_12any_executorIJNS1_12context_as_tIRNS0_17execution_contextEEENS2_8blocking7never_tILi0EEENS1_11prefer_onlyINSA_10possibly_tILi0EEEEENSD_INS2_16outstanding_work9tracked_tILi0EEEEENSD_INSH_11untracked_tILi0EEEEENSD_INS2_12relationship6fork_tILi0EEEEENSD_INSO_14continuation_tILi0EEEEEEEENS0_10io_context19basic_executor_typeISaIvELj0EEESU_EET_PKvS12_
00000000000dd140 W _ZN5boost4asio9execution6detail17any_executor_base10require_fnINS1_12any_executorIJNS1_12context_as_tIRNS0_17execution_contextEEENS2_8blocking7never_tILi0EEENS1_11prefer_onlyINSA_10possibly_tILi0EEEEENSD_INS2_16outstanding_work9tracked_tILi0EEEEENSD_INSH_11untracked_tILi0EEEEENSD_INS2_12relationship6fork_tILi0EEEEENSD_INSO_14continuation_tILi0EEEEEEEENS0_10io_context19basic_executor_typeISaIvELj4EEES9_EET_PKvS12_
00000000000dd7e0 W _ZN5boost4asio9execution6detail17any_executor_base10require_fnINS1_12any_executorIJNS1_12context_as_tIRNS0_17execution_contextEEENS2_8blocking7never_tILi0EEENS1_11prefer_onlyINSA_10possibly_tILi0EEEEENSD_INS2_16outstanding_work9tracked_tILi0EEEEENSD_INSH_11untracked_tILi0EEEEENSD_INS2_12relationship6fork_tILi0EEEEENSD_INSO_14continuation_tILi0EEEEEEEENS0_10io_context19basic_executor_typeISaIvELj4EEESC_EET_PKvS12_
00000000000dd1a0 W _ZN5boost4asio9execution6detail17any_executor_base10require_fnINS1_12any_executorIJNS1_12context_as_tIRNS0_17execution_contextEEENS2_8blocking7never_tILi0EEENS1_11prefer_onlyINSA_10possibly_tILi0EEEEENSD_INS2_16outstanding_work9tracked_tILi0EEEEENSD_INSH_11untracked_tILi0EEEEENSD_INS2_12relationship6fork_tILi0EEEEENSD_INSO_14continuation_tILi0EEEEEEEENS0_10io_context19basic_executor_typeISaIvELj4EEESG_EET_PKvS12_
00000000000dd1d0 W _ZN5boost4asio9execution6detail17any_executor_base10require_fnINS1_12any_executorIJNS1_12context_as_tIRNS0_17execution_contextEEENS2_8blocking7never_tILi0EEENS1_11prefer_onlyINSA_10possibly_tILi0EEEEENSD_INS2_16outstanding_work9tracked_tILi0EEEEENSD_INSH_11untracked_tILi0EEEEENSD_INS2_12relationship6fork_tILi0EEEEENSD_INSO_14continuation_tILi0EEEEEEEENS0_10io_context19basic_executor_typeISaIvELj4EEESK_EET_PKvS12_
00000000000dd200 W _ZN5boost4asio9execution6detail17any_executor_base10require_fnINS1_12any_executorIJNS1_12context_as_tIRNS0_17execution_contextEEENS2_8blocking7never_tILi0EEENS1_11prefer_onlyINSA_10possibly_tILi0EEEEENSD_INS2_16outstanding_work9tracked_tILi0EEEEENSD_INSH_11untracked_tILi0EEEEENSD_INS2_12relationship6fork_tILi0EEEEENSD_INSO_14continuation_tILi0EEEEEEEENS0_10io_context19basic_executor_typeISaIvELj4EEESN_EET_PKvS12_
00000000000dd270 W _ZN5boost4asio9execution6detail17any_executor_base10require_fnINS1_12any_executorIJNS1_12context_as_tIRNS0_17execution_contextEEENS2_8blocking7never_tILi0EEENS1_11prefer_onlyINSA_10possibly_tILi0EEEEENSD_INS2_16outstanding_work9tracked_tILi0EEEEENSD_INSH_11untracked_tILi0EEEEENSD_INS2_12relationship6fork_tILi0EEEEENSD_INSO_14continuation_tILi0EEEEEEEENS0_10io_context19basic_executor_typeISaIvELj4EEESR_EET_PKvS12_
00000000000dd2a0 W _ZN5boost4asio9execution6detail17any_executor_base10require_fnINS1_12any_executorIJNS1_12context_as_tIRNS0_17execution_contextEEENS2_8blocking7never_tILi0EEENS1_11prefer_onlyINSA_10possibly_tILi0EEEEENSD_INS2_16outstanding_work9tracked_tILi0EEEEENSD_INSH_11untracked_tILi0EEEEENSD_INS2_12relationship6fork_tILi0EEEEENSD_INSO_14continuation_tILi0EEEEEEEENS0_10io_context19basic_executor_typeISaIvELj4EEESU_EET_PKvS12_
0000000000050275 W _ZN5boost4asio9execution6detail17any_executor_base10require_fnINS1_12any_executorIJNS1_12context_as_tIRNS0_17execution_contextEEENS2_8blocking7never_tILi0EEENS1_11prefer_onlyINSA_10possibly_tILi0EEEEENSD_INS2_16outstanding_work9tracked_tILi0EEEEENSD_INSH_11untracked_tILi0EEEEENSD_INS2_12relationship6fork_tILi0EEEEENSD_INSO_14continuation_tILi0EEEEEEEEvS9_EET_PKvSY_
000000000005020b W _ZN5boost4asio9execution6detail17any_executor_base10require_fnINS1_12any_executorIJNS1_12context_as_tIRNS0_17execution_contextEEENS2_8blocking7never_tILi0EEENS1_11prefer_onlyINSA_10possibly_tILi0EEEEENSD_INS2_16outstanding_work9tracked_tILi0EEEEENSD_INSH_11untracked_tILi0EEEEENSD_INS2_12relationship6fork_tILi0EEEEENSD_INSO_14continuation_tILi0EEEEEEEEvSC_EET_PKvSY_
00000000000501a1 W _ZN5boost4asio9execution6detail17any_executor_base10require_fnINS1_12any_executorIJNS1_12context_as_tIRNS0_17execution_contextEEENS2_8blocking7never_tILi0EEENS1_11prefer_onlyINSA_10possibly_tILi0EEEEENSD_INS2_16outstanding_work9tracked_tILi0EEEEENSD_INSH_11untracked_tILi0EEEEENSD_INS2_12relationship6fork_tILi0EEEEENSD_INSO_14continuation_tILi0EEEEEEEEvSG_EET_PKvSY_
0000000000050137 W _ZN5boost4asio9execution6detail17any_executor_base10require_fnINS1_12any_executorIJNS1_12context_as_tIRNS0_17execution_contextEEENS2_8blocking7never_tILi0EEENS1_11prefer_onlyINSA_10possibly_tILi0EEEEENSD_INS2_16outstanding_work9tracked_tILi0EEEEENSD_INSH_11untracked_tILi0EEEEENSD_INS2_12relationship6fork_tILi0EEEEENSD_INSO_14continuation_tILi0EEEEEEEEvSK_EET_PKvSY_
00000000000500cd W _ZN5boost4asio9execution6detail17any_executor_base10require_fnINS1_12any_executorIJNS1_12context_as_tIRNS0_17execution_contextEEENS2_8blocking7never_tILi0EEENS1_11prefer_onlyINSA_10possibly_tILi0EEEEENSD_INS2_16outstanding_work9tracked_tILi0EEEEENSD_INSH_11untracked_tILi0EEEEENSD_INS2_12relationship6fork_tILi0EEEEENSD_INSO_14continuation_tILi0EEEEEEEEvSN_EET_PKvSY_
0000000000050063 W _ZN5boost4asio9execution6detail17any_executor_base10require_fnINS1_12any_executorIJNS1_12context_as_tIRNS0_17execution_contextEEENS2_8blocking7never_tILi0EEENS1_11prefer_onlyINSA_10possibly_tILi0EEEEENSD_INS2_16outstanding_work9tracked_tILi0EEEEENSD_INSH_11untracked_tILi0EEEEENSD_INS2_12relationship6fork_tILi0EEEEENSD_INSO_14continuation_tILi0EEEEEEEEvSR_EET_PKvSY_
000000000004fff9 W _ZN5boost4asio9execution6detail17any_executor_base10require_fnINS1_12any_executorIJNS1_12context_as_tIRNS0_17execution_contextEEENS2_8blocking7never_tILi0EEENS1_11prefer_onlyINSA_10possibly_tILi0EEEEENSD_INS2_16outstanding_work9tracked_tILi0EEEEENSD_INSH_11untracked_tILi0EEEEENSD_INS2_12relationship6fork_tILi0EEEEENSD_INSO_14continuation_tILi0EEEEEEEEvSU_EET_PKvSY_
00000000000dd0e0 W _ZN5boost4asio9execution6detail17any_executor_base11copy_objectINS0_10io_context19basic_executor_typeISaIvELj0EEEEEvRS3_RKS3_
00000000000dd830 W _ZN5boost4asio9execution6detail17any_executor_base11copy_objectINS0_10io_context19basic_executor_typeISaIvELj4EEEEEvRS3_RKS3_
00000000000dd100 W _ZN5boost4asio9execution6detail17any_executor_base11move_objectINS0_10io_context19basic_executor_typeISaIvELj0EEEEEvRS3_S9_
00000000000dd310 W _ZN5boost4asio9execution6detail17any_executor_base11move_objectINS0_10io_context19basic_executor_typeISaIvELj4EEEEEvRS3_S9_
00000000000dcbf0 W _ZN5boost4asio9execution6detail17any_executor_base11target_voidERKS3_
00000000000dcbc0 W _ZN5boost4asio9execution6detail17any_executor_base12destroy_voidERS3_
000000000004ff5a W _ZN5boost4asio9execution6detail17any_executor_base12execute_voidERKS3_ONS0_6detail17executor_functionE
00000000000dd120 W _ZN5boost4asio9execution6detail17any_executor_base13target_objectINS0_10io_context19basic_executor_typeISaIvELj0EEEEEPKvRKS3_
00000000000dd330 W _ZN5boost4asio9execution6detail17any_executor_base13target_objectINS0_10io_context19basic_executor_typeISaIvELj4EEEEEPKvRKS3_
00000000000dd0d0 W _ZN5boost4asio9execution6detail17any_executor_base14destroy_objectINS0_10io_context19basic_executor_typeISaIvELj0EEEEEvRS3_
00000000000dfc70 W _ZN5boost4asio9execution6detail17any_executor_base14destroy_objectINS0_10io_context19basic_executor_typeISaIvELj4EEEEEvRS3_
00000000000dd090 W _ZN5boost4asio9execution6detail17any_executor_base14target_type_exINS0_10io_context19basic_executor_typeISaIvELj0EEEEERKSt9type_infov
00000000000dd2d0 W _ZN5boost4asio9execution6detail17any_executor_base14target_type_exINS0_10io_context19basic_executor_typeISaIvELj4EEEEERKSt9type_infov
00000000000dcc00 W _ZN5boost4asio9execution6detail17any_executor_base16target_type_voidEv
000000000004ff8f W _ZN5boost4asio9execution6detail17any_executor_base21blocking_execute_voidERKS3_NS0_6detail22executor_function_viewE
00000000000dd0a0 W _ZN5boost4asio9execution6detail17any_executor_base8equal_exINS0_10io_context19basic_executor_typeISaIvELj0EEEEEbRKS3_SA_
00000000000dd2e0 W _ZN5boost4asio9execution6detail17any_executor_base8equal_exINS0_10io_context19basic_executor_typeISaIvELj4EEEEEbRKS3_SA_
00000000000dd4e0 W _ZN5boost4asio9execution6detail17any_executor_base8query_fnINS0_10io_context19basic_executor_typeISaIvELj0EEENS1_11prefer_onlyINS2_12relationship14continuation_tILi0EEEEEEEvPvPKvSG_
00000000000dd4b0 W _ZN5boost4asio9execution6detail17any_executor_base8query_fnINS0_10io_context19basic_executor_typeISaIvELj0EEENS1_11prefer_onlyINS2_12relationship6fork_tILi0EEEEEEEvPvPKvSG_
00000000000dd490 W _ZN5boost4asio9execution6detail17any_executor_base8query_fnINS0_10io_context19basic_executor_typeISaIvELj0EEENS1_11prefer_onlyINS2_16outstanding_work11untracked_tILi0EEEEEEEvPvPKvSG_
00000000000dd470 W _ZN5boost4asio9execution6detail17any_executor_base8query_fnINS0_10io_context19basic_executor_typeISaIvELj0EEENS1_11prefer_onlyINS2_16outstanding_work9tracked_tILi0EEEEEEEvPvPKvSG_
00000000000dd440 W _ZN5boost4asio9execution6detail17any_executor_base8query_fnINS0_10io_context19basic_executor_typeISaIvELj0EEENS1_11prefer_onlyINS2_8blocking10possibly_tILi0EEEEEEEvPvPKvSG_
00000000000dcdb0 W _ZN5boost4asio9execution6detail17any_executor_base8query_fnINS0_10io_context19basic_executor_typeISaIvELj0EEENS1_12context_as_tIRNS0_17execution_contextEEEEEvPvPKvSF_
00000000000dd410 W _ZN5boost4asio9execution6detail17any_executor_base8query_fnINS0_10io_context19basic_executor_typeISaIvELj0EEENS2_8blocking7never_tILi0EEEEEvPvPKvSE_
00000000000dd5e0 W _ZN5boost4asio9execution6detail17any_executor_base8query_fnINS0_10io_context19basic_executor_typeISaIvELj4EEENS1_11prefer_onlyINS2_12relationship14continuation_tILi0EEEEEEEvPvPKvSG_
00000000000dd5b0 W _ZN5boost4asio9execution6detail17any_executor_base8query_fnINS0_10io_context19basic_executor_typeISaIvELj4EEENS1_11prefer_onlyINS2_12relationship6fork_tILi0EEEEEEEvPvPKvSG_
00000000000dd590 W _ZN5boost4asio9execution6detail17any_executor_base8query_fnINS0_10io_context19basic_executor_typeISaIvELj4EEENS1_11prefer_onlyINS2_16outstanding_work11untracked_tILi0EEEEEEEvPvPKvSG_
00000000000dd570 W _ZN5boost4asio9execution6detail17any_executor_base8query_fnINS0_10io_context19basic_executor_typeISaIvELj4EEENS1_11prefer_onlyINS2_16outstanding_work9tracked_tILi0EEEEEEEvPvPKvSG_
00000000000dd540 W _ZN5boost4asio9execution6detail17any_executor_base8query_fnINS0_10io_context19basic_executor_typeISaIvELj4EEENS1_11prefer_onlyINS2_8blocking10possibly_tILi0EEEEEEEvPvPKvSG_
00000000000dd130 W _ZN5boost4asio9execution6detail17any_executor_base8query_fnINS0_10io_context19basic_executor_typeISaIvELj4EEENS1_12context_as_tIRNS0_17execution_contextEEEEEvPvPKvSF_
00000000000dd510 W _ZN5boost4asio9execution6detail17any_executor_base8query_fnINS0_10io_context19basic_executor_typeISaIvELj4EEENS2_8blocking7never_tILi0EEEEEvPvPKvSE_
000000000004ff30 W _ZN5boost4asio9execution6detail17any_executor_base8query_fnIvNS1_11prefer_onlyINS2_12relationship14continuation_tILi0EEEEEEEvPvPKvSC_
000000000004ff36 W _ZN5boost4asio9execution6detail17any_executor_base8query_fnIvNS1_11prefer_onlyINS2_12relationship6fork_tILi0EEEEEEEvPvPKvSC_
000000000004ff3c W _ZN5boost4asio9execution6detail17any_executor_base8query_fnIvNS1_11prefer_onlyINS2_16outstanding_work11untracked_tILi0EEEEEEEvPvPKvSC_
000000000004ff42 W _ZN5boost4asio9execution6detail17any_executor_base8query_fnIvNS1_11prefer_onlyINS2_16outstanding_work9tracked_tILi0EEEEEEEvPvPKvSC_
000000000004ff48 W _ZN5boost4asio9execution6detail17any_executor_base8query_fnIvNS1_11prefer_onlyINS2_8blocking10possibly_tILi0EEEEEEEvPvPKvSC_
000000000004ff54 W _ZN5boost4asio9execution6detail17any_executor_base8query_fnIvNS1_12context_as_tIRNS0_17execution_contextEEEEEvPvPKvSB_
000000000004ff4e W _ZN5boost4asio9execution6detail17any_executor_base8query_fnIvNS2_8blocking7never_tILi0EEEEEvPvPKvSA_
00000000000dcbd0 W _ZN5boost4asio9execution6detail17any_executor_base9copy_voidERS3_RKS3_
00000000000dcbe0 W _ZN5boost4asio9execution6detail17any_executor_base9move_voidERS3_S4_
00000000000dcdf0 W _ZN5boost4asio9execution6detail17any_executor_base9prefer_fnINS1_12any_executorIJNS1_12context_as_tIRNS0_17execution_contextEEENS2_8blocking7never_tILi0EEENS1_11prefer_onlyINSA_10possibly_tILi0EEEEENSD_INS2_16outstanding_work9tracked_tILi0EEEEENSD_INSH_11untracked_tILi0EEEEENSD_INS2_12relationship6fork_tILi0EEEEENSD_INSO_14continuation_tILi0EEEEEEEENS0_10io_context19basic_executor_typeISaIvELj0EEES9_EET_PKvS12_
00000000000dce60 W _ZN5boost4asio9execution6detail17any_executor_base9prefer_fnINS1_12any_executorIJNS1_12context_as_tIRNS0_17execution_contextEEENS2_8blocking7never_tILi0EEENS1_11prefer_onlyINSA_10possibly_tILi0EEEEENSD_INS2_16outstanding_work9tracked_tILi0EEEEENSD_INSH_11untracked_tILi0EEEEENSD_INS2_12relationship6fork_tILi0EEEEENSD_INSO_14continuation_tILi0EEEEEEEENS0_10io_context19basic_executor_typeISaIvELj0EEESC_EET_PKvS12_
00000000000dced0 W _ZN5boost4asio9execution6detail17any_executor_base9prefer_fnINS1_12any_executorIJNS1_12context_as_tIRNS0_17execution_contextEEENS2_8blocking7never_tILi0EEENS1_11prefer_onlyINSA_10possibly_tILi0EEEEENSD_INS2_16outstanding_work9tracked_tILi0EEEEENSD_INSH_11untracked_tILi0EEEEENSD_INS2_12relationship6fork_tILi0EEEEENSD_INSO_14continuation_tILi0EEEEEEEENS0_10io_context19basic_executor_typeISaIvELj0EEESG_EET_PKvS12_
00000000000dd6f0 W _ZN5boost4asio9execution6detail17any_executor_base9prefer_fnINS1_12any_executorIJNS1_12context_as_tIRNS0_17execution_contextEEENS2_8blocking7never_tILi0EEENS1_11prefer_onlyINSA_10possibly_tILi0EEEEENSD_INS2_16outstanding_work9tracked_tILi0EEEEENSD_INSH_11untracked_tILi0EEEEENSD_INS2_12relationship6fork_tILi0EEEEENSD_INSO_14continuation_tILi0EEEEEEEENS0_10io_context19basic_executor_typeISaIvELj0EEESK_EET_PKvS12_
00000000000dcf70 W _ZN5boost4asio9execution6detail17any_executor_base9prefer_fnINS1_12any_executorIJNS1_12context_as_tIRNS0_17execution_contextEEENS2_8blocking7never_tILi0EEENS1_11prefer_onlyINSA_10possibly_tILi0EEEEENSD_INS2_16outstanding_work9tracked_tILi0EEEEENSD_INSH_11untracked_tILi0EEEEENSD_INS2_12relationship6fork_tILi0EEEEENSD_INSO_14continuation_tILi0EEEEEEEENS0_10io_context19basic_executor_typeISaIvELj0EEESN_EET_PKvS12_
00000000000dcfe0 W _ZN5boost4asio9execution6detail17any_executor_base9prefer_fnINS1_12any_executorIJNS1_12context_as_tIRNS0_17execution_contextEEENS2_8blocking7never_tILi0EEENS1_11prefer_onlyINSA_10possibly_tILi0EEEEENSD_INS2_16outstanding_work9tracked_tILi0EEEEENSD_INSH_11untracked_tILi0EEEEENSD_INS2_12relationship6fork_tILi0EEEEENSD_INSO_14continuation_tILi0EEEEEEEENS0_10io_context19basic_executor_typeISaIvELj0EEESR_EET_PKvS12_
00000000000dd050 W _ZN5boost4asio9execution6detail17any_executor_base9prefer_fnINS1_12any_executorIJNS1_12context_as_tIRNS0_17execution_contextEEENS2_8blocking7never_tILi0EEENS1_11prefer_onlyINSA_10possibly_tILi0EEEEENSD_INS2_16outstanding_work9tracked_tILi0EEEEENSD_INSH_11untracked_tILi0EEEEENSD_INS2_12relationship6fork_tILi0EEEEENSD_INSO_14continuation_tILi0EEEEEEEENS0_10io_context19basic_executor_typeISaIvELj0EEESU_EET_PKvS12_
00000000000dd170 W _ZN5boost4asio9execution6detail17any_executor_base9prefer_fnINS1_12any_executorIJNS1_12context_as_tIRNS0_17execution_contextEEENS2_8blocking7never_tILi0EEENS1_11prefer_onlyINSA_10possibly_tILi0EEEEENSD_INS2_16outstanding_work9tracked_tILi0EEEEENSD_INSH_11untracked_tILi0EEEEENSD_INS2_12relationship6fork_tILi0EEEEENSD_INSO_14continuation_tILi0EEEEEEEENS0_10io_context19basic_executor_typeISaIvELj4EEES9_EET_PKvS12_
00000000000dd790 W _ZN5boost4asio9execution6detail17any_executor_base9prefer_fnINS1_12any_executorIJNS1_12context_as_tIRNS0_17execution_contextEEENS2_8blocking7never_tILi0EEENS1_11prefer_onlyINSA_10possibly_tILi0EEEEENSD_INS2_16outstanding_work9tracked_tILi0EEEEENSD_INSH_11untracked_tILi0EEEEENSD_INS2_12relationship6fork_tILi0EEEEENSD_INSO_14continuation_tILi0EEEEEEEENS0_10io_context19basic_executor_typeISaIvELj4EEESC_EET_PKvS12_
00000000000dd860 W _ZN5boost4asio9execution6detail17any_executor_base9prefer_fnINS1_12any_executorIJNS1_12context_as_tIRNS0_17execution_contextEEENS2_8blocking7never_tILi0EEENS1_11prefer_onlyINSA_10possibly_tILi0EEEEENSD_INS2_16outstanding_work9tracked_tILi0EEEEENSD_INSH_11untracked_tILi0EEEEENSD_INS2_12relationship6fork_tILi0EEEEENSD_INSO_14continuation_tILi0EEEEEEEENS0_10io_context19basic_executor_typeISaIvELj4EEESG_EET_PKvS12_
00000000000dd740 W _ZN5boost4asio9execution6detail17any_executor_base9prefer_fnINS1_12any_executorIJNS1_12context_as_tIRNS0_17execution_contextEEENS2_8blocking7never_tILi0EEENS1_11prefer_onlyINSA_10possibly_tILi0EEEEENSD_INS2_16outstanding_work9tracked_tILi0EEEEENSD_INSH_11untracked_tILi0EEEEENSD_INS2_12relationship6fork_tILi0EEEEENSD_INSO_14continuation_tILi0EEEEEEEENS0_10io_context19basic_executor_typeISaIvELj4EEESK_EET_PKvS12_
00000000000dd230 W _ZN5boost4asio9execution6detail17any_executor_base9prefer_fnINS1_12any_executorIJNS1_12context_as_tIRNS0_17execution_contextEEENS2_8blocking7never_tILi0EEENS1_11prefer_onlyINSA_10possibly_tILi0EEEEENSD_INS2_16outstanding_work9tracked_tILi0EEEEENSD_INSH_11untracked_tILi0EEEEENSD_INS2_12relationship6fork_tILi0EEEEENSD_INSO_14continuation_tILi0EEEEEEEENS0_10io_context19basic_executor_typeISaIvELj4EEESN_EET_PKvS12_
00000000000dd8b0 W _ZN5boost4asio9execution6detail17any_executor_base9prefer_fnINS1_12any_executorIJNS1_12context_as_tIRNS0_17execution_contextEEENS2_8blocking7never_tILi0EEENS1_11prefer_onlyINSA_10possibly_tILi0EEEEENSD_INS2_16outstanding_work9tracked_tILi0EEEEENSD_INSH_11untracked_tILi0EEEEENSD_INS2_12relationship6fork_tILi0EEEEENSD_INSO_14continuation_tILi0EEEEEEEENS0_10io_context19basic_executor_typeISaIvELj4EEESR_EET_PKvS12_
00000000000dd900 W _ZN5boost4asio9execution6detail17any_executor_base9prefer_fnINS1_12any_executorIJNS1_12context_as_tIRNS0_17execution_contextEEENS2_8blocking7never_tILi0EEENS1_11prefer_onlyINSA_10possibly_tILi0EEEEENSD_INS2_16outstanding_work9tracked_tILi0EEEEENSD_INSH_11untracked_tILi0EEEEENSD_INS2_12relationship6fork_tILi0EEEEENSD_INSO_14continuation_tILi0EEEEEEEENS0_10io_context19basic_executor_typeISaIvELj4EEESU_EET_PKvS12_
0000000000050240 W _ZN5boost4asio9execution6detail17any_executor_base9prefer_fnINS1_12any_executorIJNS1_12context_as_tIRNS0_17execution_contextEEENS2_8blocking7never_tILi0EEENS1_11prefer_onlyINSA_10possibly_tILi0EEEEENSD_INS2_16outstanding_work9tracked_tILi0EEEEENSD_INSH_11untracked_tILi0EEEEENSD_INS2_12relationship6fork_tILi0EEEEENSD_INSO_14continuation_tILi0EEEEEEEEvS9_EET_PKvSY_
00000000000501d6 W _ZN5boost4asio9execution6detail17any_executor_base9prefer_fnINS1_12any_executorIJNS1_12context_as_tIRNS0_17execution_contextEEENS2_8blocking7never_tILi0EEENS1_11prefer_onlyINSA_10possibly_tILi0EEEEENSD_INS2_16outstanding_work9tracked_tILi0EEEEENSD_INSH_11untracked_tILi0EEEEENSD_INS2_12relationship6fork_tILi0EEEEENSD_INSO_14continuation_tILi0EEEEEEEEvSC_EET_PKvSY_
000000000005016c W _ZN5boost4asio9execution6detail17any_executor_base9prefer_fnINS1_12any_executorIJNS1_12context_as_tIRNS0_17execution_contextEEENS2_8blocking7never_tILi0EEENS1_11prefer_onlyINSA_10possibly_tILi0EEEEENSD_INS2_16outstanding_work9tracked_tILi0EEEEENSD_INSH_11untracked_tILi0EEEEENSD_INS2_12relationship6fork_tILi0EEEEENSD_INSO_14continuation_tILi0EEEEEEEEvSG_EET_PKvSY_
0000000000050102 W _ZN5boost4asio9execution6detail17any_executor_base9prefer_fnINS1_12any_executorIJNS1_12context_as_tIRNS0_17execution_contextEEENS2_8blocking7never_tILi0EEENS1_11prefer_onlyINSA_10possibly_tILi0EEEEENSD_INS2_16outstanding_work9tracked_tILi0EEEEENSD_INSH_11untracked_tILi0EEEEENSD_INS2_12relationship6fork_tILi0EEEEENSD_INSO_14continuation_tILi0EEEEEEEEvSK_EET_PKvSY_
0000000000050098 W _ZN5boost4asio9execution6detail17any_executor_base9prefer_fnINS1_12any_executorIJNS1_12context_as_tIRNS0_17execution_contextEEENS2_8blocking7never_tILi0EEENS1_11prefer_onlyINSA_10possibly_tILi0EEEEENSD_INS2_16outstanding_work9tracked_tILi0EEEEENSD_INSH_11untracked_tILi0EEEEENSD_INS2_12relationship6fork_tILi0EEEEENSD_INSO_14continuation_tILi0EEEEEEEEvSN_EET_PKvSY_
000000000005002e W _ZN5boost4asio9execution6detail17any_executor_base9prefer_fnINS1_12any_executorIJNS1_12context_as_tIRNS0_17execution_contextEEENS2_8blocking7never_tILi0EEENS1_11prefer_onlyINSA_10possibly_tILi0EEEEENSD_INS2_16outstanding_work9tracked_tILi0EEEEENSD_INSH_11untracked_tILi0EEEEENSD_INS2_12relationship6fork_tILi0EEEEENSD_INSO_14continuation_tILi0EEEEEEEEvSR_EET_PKvSY_
000000000004ffc4 W _ZN5boost4asio9execution6detail17any_executor_base9prefer_fnINS1_12any_executorIJNS1_12context_as_tIRNS0_17execution_contextEEENS2_8blocking7never_tILi0EEENS1_11prefer_onlyINSA_10possibly_tILi0EEEEENSD_INS2_16outstanding_work9tracked_tILi0EEEEENSD_INSH_11untracked_tILi0EEEEENSD_INS2_12relationship6fork_tILi0EEEEENSD_INSO_14continuation_tILi0EEEEEEEEvSU_EET_PKvSY_
00000000000de400 W _ZN5boost6system12system_errorD0Ev
00000000000dd690 W _ZN5boost6system12system_errorD1Ev
00000000000dd690 W _ZN5boost6system12system_errorD2Ev
00000000000de040 W _ZN5boost6system6detail12std_categoryD0Ev
00000000000de020 W _ZN5boost6system6detail12std_categoryD1Ev
00000000000de020 W _ZN5boost6system6detail12std_categoryD2Ev
00000000000e5c50 W _ZN5boost6system6detail15to_std_categoryERKNS0_14error_categoryE
000000000033b480 u _ZN5boost6system6detail17system_cat_holderIvE8instanceE
000000000033b490 u _ZN5boost6system6detail18generic_cat_holderIvE8instanceE
000000000009b740 W _ZN5boost9algorithm3hexIPhSt16ostream_iteratorIccSt11char_traitsIcEEEENS_9enable_ifINS_11is_integralINS0_6detail19hex_iterator_traitsIT_E10value_typeEEET0_E4typeESB_SB_SF_
00000000000e73f0 T _ZN5CLock4lockEv
00000000000e73a0 T _ZN5CLock4LockEv
00000000000e7400 T _ZN5CLock6unlockEv
00000000000e73d0 T _ZN5CLock6UnlockEv
0000000000075760 T _ZN5share11get_wire_idEj
0000000000075770 T _ZN5share11set_wire_idEjj
0000000000075780 T _ZN5share12set_wire_idsESt6vectorIjSaIjEE
00000000000758e0 T _ZN5share13get_bitlengthEv
00000000000758f0 T _ZN5share13set_bitlengthEj
0000000000075af0 T _ZN5share14get_share_typeEv
0000000000075ae0 T _ZN5share16get_circuit_typeEv
0000000000075a40 T _ZN5share17get_max_bitlengthEv
0000000000075ac0 T _ZN5share17get_nvals_on_wireEj
0000000000075a50 T _ZN5share17set_max_bitlengthEj
0000000000075ee0 T _ZN5share21get_wire_ids_as_shareEj
0000000000075750 T _ZN5share4initEP7Circuitj
0000000000075a60 T _ZN5share9get_nvalsEv
0000000000075e70 T _ZN5shareC1EjP7Circuit
0000000000075ca0 T _ZN5shareC1ESt6vectorIjSaIjEEP7Circuit
0000000000075e70 T _ZN5shareC2EjP7Circuit
0000000000075ca0 T _ZN5shareC2ESt6vectorIjSaIjEEP7Circuit
00000000000e7450 T _ZN6CEvent3SetEv
00000000000e74c0 T _ZN6CEvent4WaitEv
00000000000e75d0 T _ZN6CEvent5ResetEv
00000000000e7410 T _ZN6CEventC1Ebb
00000000000e7410 T _ZN6CEventC2Ebb
00000000000d0cc0 T _ZN6crypto12gen_rnd_permEPjj
00000000000d0aa0 T _ZN6crypto12init_aes_keyEP17evp_cipher_ctx_stjPh7bc_modePKhb
00000000000d0b60 T _ZN6crypto12init_aes_keyEP17evp_cipher_ctx_stPh7bc_modePKh
00000000000d0b00 T _ZN6crypto12seed_aes_encEPh7bc_modePKh
00000000000d09b0 T _ZN6crypto12seed_aes_keyEP17evp_cipher_ctx_stjPh7bc_modePKhb
00000000000d0ab0 T _ZN6crypto12seed_aes_keyEP17evp_cipher_ctx_stPh7bc_modePKhb
00000000000d09a0 T _ZN6crypto13clean_aes_keyEP17evp_cipher_ctx_st
00000000000d0ae0 T _ZN6crypto13seed_aes_hashEPh7bc_modePKh
00000000000d1080 T _ZN6crypto14free_prf_stateEP13prf_state_ctx
00000000000d0e10 T _ZN6crypto14get_hash_bytesEv
00000000000d0ea0 T _ZN6crypto14init_prf_stateEP13prf_state_ctxPh
00000000000d0ef0 T _ZN6crypto15gen_common_seedEP13prf_state_ctxR7CSocket
00000000000d0870 T _ZN6crypto15gen_rnd_uniformEPjj
00000000000d1100 T _ZN6crypto17gen_rnd_from_seedEPhjS0_
00000000000d0dc0 T _ZN6crypto17get_aes_key_bytesEv
00000000000d0c30 T _ZN6crypto18fixed_key_aes_hashEP17evp_cipher_ctx_stPhjS2_j
00000000000d0c10 T _ZN6crypto19hash_non_threadsafeEPhjS0_j
00000000000d0e40 T _ZN6crypto4hashEPhjS0_j
00000000000d14b0 T _ZN6crypto4initEjPh
00000000000d0940 T _ZN6crypto7decryptEP17evp_cipher_ctx_stPhS2_j
00000000000d0980 T _ZN6crypto7decryptEPhS0_j
00000000000d0920 T _ZN6crypto7encryptEP17evp_cipher_ctx_stPhS2_j
00000000000d0960 T _ZN6crypto7encryptEPhS0_j
00000000000d06c0 T _ZN6crypto7gen_rndEPhj
00000000000d0bf0 T _ZN6crypto8hash_bufEPhjS0_jS0_
00000000000d0b70 T _ZN6crypto8hash_ctrEPhjS0_jm
00000000000d0740 T _ZN6crypto9gen_fieldE10field_type
00000000000d1600 T _ZN6cryptoC1Ej
00000000000d15d0 T _ZN6cryptoC1EjPh
00000000000d1600 T _ZN6cryptoC2Ej
00000000000d15d0 T _ZN6cryptoC2EjPh
00000000000d10b0 T _ZN6cryptoD1Ev
00000000000d10b0 T _ZN6cryptoD2Ev
00000000000d4a00 T _ZN6ecc_fe12shallow_copyEP5eb_stS1_
00000000000d44a0 T _ZN6ecc_fe15export_to_bytesEPh
00000000000d4420 T _ZN6ecc_fe17import_from_bytesEPh
00000000000d5040 T _ZN6ecc_fe18set_double_pow_mulEP2feP3numS1_S3_
00000000000d4390 T _ZN6ecc_fe20sample_fe_from_bytesEPhj
00000000000d4c10 T _ZN6ecc_fe2eqEP2fe
00000000000d4a50 T _ZN6ecc_fe3setEP2fe
00000000000d4640 T _ZN6ecc_fe4initEv
00000000000d40f0 T _ZN6ecc_fe5printEv
00000000000d4a40 T _ZN6ecc_fe7get_valEP5eb_st
00000000000d4b70 T _ZN6ecc_fe7set_divEP2feS1_
00000000000d4ad0 T _ZN6ecc_fe7set_mulEP2feS1_
00000000000d4fa0 T _ZN6ecc_fe7set_powEP2feP3num
00000000000d46c0 T _ZN6ecc_feC1EP9ecc_field
00000000000d4720 T _ZN6ecc_feC1EP9ecc_fieldP5eb_st
00000000000d46c0 T _ZN6ecc_feC2EP9ecc_field
00000000000d4720 T _ZN6ecc_feC2EP9ecc_fieldP5eb_st
00000000000d4040 T _ZN6ecc_feD0Ev
00000000000d3fd0 T _ZN6ecc_feD1Ev
00000000000d3fd0 T _ZN6ecc_feD2Ev
00000000000c9e30 W _ZN6FPType7getTypeEv
00000000000d6620 T _ZN6gmp_fe15export_to_bytesEPh
00000000000d5740 T _ZN6gmp_fe17import_from_bytesEPh
00000000000d6340 T _ZN6gmp_fe18set_double_pow_mulEP2feP3numS1_S3_
00000000000d6230 T _ZN6gmp_fe20sample_fe_from_bytesEPhj
00000000000d60f0 T _ZN6gmp_fe2eqEP2fe
00000000000d60d0 T _ZN6gmp_fe3setEP2fe
00000000000d6660 W _ZN6gmp_fe4initEv
00000000000d5920 T _ZN6gmp_fe5printEv
00000000000d60c0 T _ZN6gmp_fe7get_valEv
00000000000d61c0 T _ZN6gmp_fe7set_divEP2feS1_
00000000000d6120 T _ZN6gmp_fe7set_mulEP2feS1_
00000000000d6170 T _ZN6gmp_fe7set_powEP2feP3num
00000000000d5ec0 T _ZN6gmp_feC1EP11prime_field
00000000000d5f20 T _ZN6gmp_feC1EP11prime_fieldP12__mpz_struct
00000000000d5ec0 T _ZN6gmp_feC2EP11prime_field
00000000000d5f20 T _ZN6gmp_feC2EP11prime_fieldP12__mpz_struct
00000000000d56e0 T _ZN6gmp_feD0Ev
00000000000d56b0 T _ZN6gmp_feD1Ev
00000000000d56b0 T _ZN6gmp_feD2Ev
00000000000c9e90 W _ZN6UINT3214getNumOfDigitsEv
00000000000cfe00 T _ZN7channel10signal_endEv
00000000000cf9c0 T _ZN7channel11send_id_lenEPhmmm
00000000000cfe20 T _ZN7channel12wait_for_finEv
00000000000cf9a0 T _ZN7channel13blocking_sendEP6CEventPhm
00000000000cfde0 T _ZN7channel14data_availableEv
00000000000cfe40 T _ZN7channel15synchronize_endEv
00000000000cfb80 T _ZN7channel16blocking_receiveEPhm
00000000000cfa70 T _ZN7channel16blocking_receiveEv
00000000000cf9e0 T _ZN7channel20blocking_send_id_lenEP6CEventPhmmm
00000000000cfb50 T _ZN7channel23blocking_receive_id_lenEPPhPmS2_
00000000000cf990 T _ZN7channel4sendEPhm
00000000000cfdb0 T _ZN7channel8is_aliveEv
00000000000cfe80 T _ZN7channelC1EhP9RcvThreadP9SndThread
00000000000cfe80 T _ZN7channelC2EhP9RcvThreadP9SndThread
00000000000cf920 T _ZN7channelD1Ev
00000000000cf920 T _ZN7channelD2Ev
0000000000072a40 T _ZN7Circuit10PutA2BGateEP5sharePS_
0000000000072a00 T _ZN7Circuit10PutY2AGateEP5sharePS_
0000000000073750 T _ZN7Circuit13PutAssertGateEP5sharehj
0000000000073540 T _ZN7Circuit13PutAssertGateEP5sharejj
0000000000073430 T _ZN7Circuit13PutAssertGateEP5sharemj
0000000000073740 T _ZN7Circuit13PutAssertGateEP5sharePhj
0000000000073530 T _ZN7Circuit13PutAssertGateEP5sharePjj
0000000000073420 T _ZN7Circuit13PutAssertGateEP5sharePmj
0000000000073640 T _ZN7Circuit13PutAssertGateEP5sharePtj
0000000000073650 T _ZN7Circuit13PutAssertGateEP5sharetj
0000000000072c70 T _ZN7Circuit13PutSubsetGateEjPjjb
0000000000074540 T _ZN7Circuit13PutSubsetGateEP5sharePjjb
0000000000073d70 T _ZN7Circuit15PutCombinerGateEP5share
0000000000073e90 T _ZN7Circuit15PutCombinerGateEP5shareS1_
0000000000072a80 T _ZN7Circuit15PutCombinerGateESt6vectorIjSaIjEE
0000000000072e90 T _ZN7Circuit15PutRepeaterGateEjj
00000000000746d0 T _ZN7Circuit15PutRepeaterGateEjP5share
0000000000072cb0 T _ZN7Circuit15PutSplitterGateEj
0000000000072d50 T _ZN7Circuit15PutSplitterGateEjRKSt6vectorIjSaIjEE
0000000000074490 T _ZN7Circuit15PutSplitterGateEP5share
0000000000073070 T _ZN7Circuit16EnsureOutputGateEP5share
0000000000073020 T _ZN7Circuit16UpdateLocalQueueEP5share
0000000000073100 T _ZN7Circuit17PutPrintValueGateEP5shareNSt7__cxx1112basic_stringIcSt11char_traitsIcESaIcEEE
0000000000073670 T _ZN7Circuit17PutSIMDAssertGateEP5sharejPhj
0000000000073450 T _ZN7Circuit17PutSIMDAssertGateEP5sharejPjj
00000000000732f0 T _ZN7Circuit17PutSIMDAssertGateEP5sharejPmj
0000000000073560 T _ZN7Circuit17PutSIMDAssertGateEP5sharejPtj
0000000000072950 T _ZN7Circuit18GetOutputGateValueEj
0000000000072890 T _ZN7Circuit18GetOutputGateValueEjRPm
0000000000073b30 T _ZN7Circuit18PutPermutationGateEP5sharePj
0000000000072ed0 T _ZN7Circuit18PutPermutationGateESt6vectorIjSaIjEEPj
0000000000073c50 T _ZN7Circuit19PutCombineAtPosGateEP5sharej
0000000000072b70 T _ZN7Circuit19PutCombineAtPosGateESt6vectorIjSaIjEEj
0000000000072870 T _ZN7Circuit21GetGateSpecificOutputEj
0000000000072fd0 T _ZN7Circuit22UpdateInteractiveQueueEP5share
0000000000073770 T _ZN7Circuit28ExportCircuitInBristolFormatEP5shareS1_S1_PKc
0000000000074ca0 T _ZN7Circuit4InitEv
0000000000074800 T _ZN7Circuit5ResetEv
0000000000072860 T _ZN7Circuit7CleanupEv
000000000007c370 W _ZN7CircuitD0Ev
000000000007c070 W _ZN7CircuitD1Ev
000000000007c070 W _ZN7CircuitD2Ev
00000000000d9320 T _ZN7CSocket11ResetRcvCntEv
00000000000d92d0 T _ZN7CSocket11ResetSndCntEv
00000000000da070 T _ZN7CSocket4BindERKNSt7__cxx1112basic_stringIcSt11char_traitsIcESaIcEEEt
00000000000d9680 T _ZN7CSocket4SendEPKvm
00000000000d9930 T _ZN7CSocket5CloseEv
00000000000daf40 T _ZN7CSocket6AcceptEv
00000000000d9a90 T _ZN7CSocket6ListenEi
00000000000d9370 T _ZN7CSocket6SocketEv
00000000000db830 T _ZN7CSocket7ConnectERKNSt7__cxx1112basic_stringIcSt11char_traitsIcESaIcEEEt
00000000000d9380 T _ZN7CSocket7ReceiveEPvm
00000000000daa40 T _ZN7CSocketC1Eb
00000000000daa40 T _ZN7CSocketC2Eb
00000000000dad90 T _ZN7CSocketD1Ev
00000000000dad90 T _ZN7CSocketD2Ev
00000000000e7360 T _ZN7CThread4WaitEv
00000000000e72e0 T _ZN7CThread5StartEv
00000000000e7280 T _ZN7CThreadC1Ev
00000000000e7280 T _ZN7CThreadC2Ev
00000000000e72c0 T _ZN7CThreadD0Ev
00000000000e72a0 T _ZN7CThreadD1Ev
00000000000e72a0 T _ZN7CThreadD2Ev
00000000000d3fa0 T _ZN7ecc_num11set_mul_modEP3numS1_S1_
00000000000d4f80 T _ZN7ecc_num12shallow_copyEP5bn_stS1_
00000000000d4270 T _ZN7ecc_num15export_to_bytesEPhj
00000000000d4300 T _ZN7ecc_num17import_from_bytesEPhj
00000000000d54d0 T _ZN7ecc_num3modEP3num
00000000000d5260 T _ZN7ecc_num3setEP3num
00000000000d4200 T _ZN7ecc_num5printEv
00000000000d3f90 T _ZN7ecc_num6set_siEi
00000000000d4f90 T _ZN7ecc_num7get_valEP5bn_st
00000000000d52f0 T _ZN7ecc_num7set_addEP3numS1_
00000000000d5430 T _ZN7ecc_num7set_mulEP3numS1_
00000000000d5390 T _ZN7ecc_num7set_subEP3numS1_
00000000000d4ca0 T _ZN7ecc_numC1EP9ecc_field
00000000000d4d80 T _ZN7ecc_numC1EP9ecc_fieldP5bn_st
00000000000d4ca0 T _ZN7ecc_numC2EP9ecc_field
00000000000d4d80 T _ZN7ecc_numC2EP9ecc_fieldP5bn_st
00000000000d40d0 T _ZN7ecc_numD0Ev
00000000000d4060 T _ZN7ecc_numD1Ev
00000000000d4060 T _ZN7ecc_numD2Ev
00000000000d5e10 T _ZN7gmp_num11set_mul_modEP3numS1_S1_
00000000000d6600 T _ZN7gmp_num15export_to_bytesEPhj
00000000000d5710 T _ZN7gmp_num17import_from_bytesEPhj
00000000000d5d60 T _ZN7gmp_num3modEP3num
00000000000d5cb0 T _ZN7gmp_num3setEP3num
00000000000d57e0 T _ZN7gmp_num5printEv
00000000000d5700 T _ZN7gmp_num6set_siEi
00000000000d5ca0 T _ZN7gmp_num7get_valEv
00000000000d5cd0 T _ZN7gmp_num7set_addEP3numS1_
00000000000d5d30 T _ZN7gmp_num7set_mulEP3numS1_
00000000000d5d00 T _ZN7gmp_num7set_subEP3numS1_
00000000000d59b0 T _ZN7gmp_numC1EP11prime_field
00000000000d5a10 T _ZN7gmp_numC1EP11prime_fieldP12__mpz_struct
00000000000d59b0 T _ZN7gmp_numC2EP11prime_field
00000000000d5a10 T _ZN7gmp_numC2EP11prime_fieldP12__mpz_struct
00000000000d5690 T _ZN7gmp_numD0Ev
00000000000d5660 T _ZN7gmp_numD1Ev
00000000000d5660 T _ZN7gmp_numD2Ev
000000000009ae90 T _ZN7Sharing15ReadOutputValueEj9e_circuitPj
000000000009a8b0 T _ZN7Sharing17PreCompFileDeleteEv
000000000009b080 T _ZN7Sharing18EvaluateAssertGateEj9e_circuit
000000000009b3c0 T _ZN7Sharing20EvaluateCallbackGateEj
000000000009b430 T _ZN7Sharing20EvaluatePrintValGateEj9e_circuit
000000000009a8a0 T _ZN7Sharing20GetPreCompPhaseValueEv
000000000009a890 T _ZN7Sharing20SetPreCompPhaseValueE13ePreCompPhase
000000000009b210 T _ZN7Sharing8FreeGateEP4GATE
000000000009b390 T _ZN7Sharing8UsedGateEj
000000000009a720 T _ZN7SharingC1E9e_sharing6e_rolejP10ABYCircuitP6cryptoRKNSt7__cxx1112basic_stringIcSt11char_traitsIcESaIcEEE
000000000009a720 T _ZN7SharingC2E9e_sharing6e_rolejP10ABYCircuitP6cryptoRKNSt7__cxx1112basic_stringIcSt11char_traitsIcESaIcEEE
000000000009a870 T _ZN7SharingD0Ev
000000000009a830 T _ZN7SharingD1Ev
000000000009a830 T _ZN7SharingD2Ev
000000000005ce90 T _ZN8ABYParty11ExecCircuitEv
000000000005b690 T _ZN8ABYParty11GetSentDataE8ABYPHASE
000000000005acb0 T _ZN8ABYParty11GetSharingsEv
000000000005d780 T _ZN8ABYParty11InitCircuitEjjRKNSt7__cxx1112basic_stringIcSt11char_traitsIcESaIcEEE
000000000005b700 T _ZN8ABYParty13GetTotalDepthEv
000000000005b6d0 T _ZN8ABYParty13GetTotalGatesEv
000000000005c7e0 T _ZN8ABYParty14ABYPartyListenEv
000000000005b4e0 T _ZN8ABYParty15ABYPartyConnectEv
000000000005b890 T _ZN8ABYParty15EvaluateCircuitEv
000000000005b6b0 T _ZN8ABYParty15GetReceivedDataE8ABYPHASE
000000000005b500 T _ZN8ABYParty15InstantiateGateEj
000000000005bae0 T _ZN8ABYParty16ThreadSendValuesEj
000000000005cc10 T _ZN8ABYParty17ConnectAndBaseOTsEv
000000000005b7e0 T _ZN8ABYParty17WaitWorkerThreadsEv
000000000005c690 T _ZN8ABYParty18CPartyWorkerThread10ThreadMainEv
000000000005e890 W _ZN8ABYParty18CPartyWorkerThreadD0Ev
000000000005e860 W _ZN8ABYParty18CPartyWorkerThreadD1Ev
000000000005e860 W _ZN8ABYParty18CPartyWorkerThreadD2Ev
000000000005b870 T _ZN8ABYParty18PerformInteractionEv
000000000005ca80 T _ZN8ABYParty19EstablishConnectionEv
000000000005c040 T _ZN8ABYParty19ThreadReceiveValuesEv
000000000005b710 T _ZN8ABYParty19WakeupWorkerThreadsENS_13EPartyJobTypeE
000000000005ba70 T _ZN8ABYParty20ThreadNotifyTaskDoneEi
000000000005b100 T _ZN8ABYParty26PrintPerformanceStatisticsEv
000000000005d590 T _ZN8ABYParty4InitEv
000000000005b560 T _ZN8ABYParty5ResetEv
000000000005acc0 T _ZN8ABYParty7CleanupEv
000000000005b530 T _ZN8ABYParty8UsedGateEj
000000000005b670 T _ZN8ABYParty9GetTimingE8ABYPHASE
000000000005e1f0 T _ZN8ABYPartyC1E6e_roleRKNSt7__cxx1112basic_stringIcSt11char_traitsIcESaIcEEEt14SECURITYLEVELSjj12e_mt_gen_algjS8_
000000000005e1f0 T _ZN8ABYPartyC2E6e_roleRKNSt7__cxx1112basic_stringIcSt11char_traitsIcESaIcEEEt14SECURITYLEVELSjj12e_mt_gen_algjS8_
000000000005af30 T _ZN8ABYPartyD1Ev
000000000005af30 T _ZN8ABYPartyD2Ev
0000000000065f20 T _ZN8ABYSetup11AddSendTaskEPhm
0000000000066de0 T _ZN8ABYSetup13CWorkerThread10ThreadMainEv
0000000000067040 W _ZN8ABYSetup13CWorkerThreadD0Ev
0000000000067010 W _ZN8ABYSetup13CWorkerThreadD1Ev
0000000000067010 W _ZN8ABYSetup13CWorkerThreadD2Ev
0000000000065f60 T _ZN8ABYSetup14AddReceiveTaskEPhm
0000000000066bd0 T _ZN8ABYSetup14ThreadRunKKRcvEj
0000000000066cd0 T _ZN8ABYSetup14ThreadRunKKSndEj
0000000000065220 T _ZN8ABYSetup14ThreadRunNPRcvEv
0000000000065200 T _ZN8ABYSetup14ThreadRunNPSndEv
0000000000065b40 T _ZN8ABYSetup14ThreadSendDataEj
00000000000651f0 T _ZN8ABYSetup16FinishSetupPhaseEv
0000000000066ad0 T _ZN8ABYSetup16ThreadRunIKNPRcvEj
0000000000066990 T _ZN8ABYSetup16ThreadRunIKNPSndEj
0000000000065d70 T _ZN8ABYSetup17PerformSetupPhaseEv
0000000000066100 T _ZN8ABYSetup17PrepareSetupPhaseEP8comm_ctx
0000000000065b80 T _ZN8ABYSetup17ThreadReceiveDataEv
00000000000656c0 T _ZN8ABYSetup17ThreadRunDGKMTGenEj
0000000000065ce0 T _ZN8ABYSetup17WaitWorkerThreadsEv
0000000000065bb0 T _ZN8ABYSetup19WakeupWorkerThreadsENS_8EJobTypeE
0000000000065f90 T _ZN8ABYSetup20ThreadNotifyTaskDoneEi
0000000000065240 T _ZN8ABYSetup22ThreadRunPaillierMTGenEj
0000000000065f50 T _ZN8ABYSetup22WaitForTransmissionEndEv
0000000000066590 T _ZN8ABYSetup4InitEv
0000000000066010 T _ZN8ABYSetup5ResetEv
0000000000064f00 T _ZN8ABYSetup7CleanupEv
0000000000066880 T _ZN8ABYSetupC1EP6cryptoj6e_role12e_mt_gen_alg
0000000000066880 T _ZN8ABYSetupC2EP6cryptoj6e_role12e_mt_gen_alg
00000000000650e0 T _ZN8ABYSetupD1Ev
00000000000650e0 T _ZN8ABYSetupD2Ev
0000000000077030 T _ZN8DGKParty10loadNewKeyEjj
00000000000762d0 T _ZN8DGKParty11generateKeyEv
0000000000076ee0 T _ZN8DGKParty11keyExchangeEP7channel
0000000000076e60 T _ZN8DGKParty12receivempz_tEP12__mpz_structP7channel
0000000000076d90 T _ZN8DGKParty12receivempz_tEP12__mpz_structP7channelPh
0000000000076350 T _ZN8DGKParty20computeArithmeticMTsEPhS0_S0_S0_S0_S0_jP7channel
00000000000762b0 T _ZN8DGKParty7readKeyEv
0000000000076de0 T _ZN8DGKParty9sendmpz_tEP12__mpz_structP7channel
0000000000076d10 T _ZN8DGKParty9sendmpz_tEP12__mpz_structP7channelPh
00000000000762f0 T _ZN8DGKPartyC1Ejjj
0000000000076fe0 T _ZN8DGKPartyC1EjjP7channelj
00000000000762f0 T _ZN8DGKPartyC2Ejjj
0000000000076fe0 T _ZN8DGKPartyC2EjjP7channelj
0000000000076320 T _ZN8DGKPartyD1Ev
0000000000076320 T _ZN8DGKPartyD2Ev
0000000000078480 T _ZN8DJNParty11keyExchangeEP7channel
0000000000078400 T _ZN8DJNParty12receivempz_tEP12__mpz_structP7channel
0000000000078330 T _ZN8DJNParty12receivempz_tEP12__mpz_structP7channelPh
0000000000077080 T _ZN8DJNParty17setShareBitLengthEj
0000000000077df0 T _ZN8DJNParty20benchPreCompPacking1EP7channelPhjjPA1_12__mpz_structS5_S5_S5_S5_PS3_S6_S6_S6_
00000000000770c0 T _ZN8DJNParty20computeArithmeticMTsEPhS0_S0_S0_S0_S0_jP7channel
0000000000077050 T _ZN8DJNParty6keyGenEv
0000000000078380 T _ZN8DJNParty9sendmpz_tEP12__mpz_structP7channel
00000000000782b0 T _ZN8DJNParty9sendmpz_tEP12__mpz_structP7channelPh
0000000000077060 T _ZN8DJNPartyC1Ejj
0000000000078530 T _ZN8DJNPartyC1EjjP7channel
0000000000077060 T _ZN8DJNPartyC2Ejj
0000000000078530 T _ZN8DJNPartyC2EjjP7channel
0000000000077090 T _ZN8DJNPartyD1Ev
0000000000077090 T _ZN8DJNPartyD2Ev
00000000000eadb0 T _ZN8OTExtRec10HashValuesEP10CBitVectorS1_S1_mmPPm
00000000000eab80 T _ZN8OTExtRec11MaskBaseOTsEP10CBitVectorS1_mm
00000000000eaa20 T _ZN8OTExtRec13BuildMatricesEP10CBitVectorS1_mmP17evp_cipher_ctx_st
00000000000ec1f0 T _ZN8OTExtRec13start_receiveEj
00000000000ec500 T _ZN8OTExtRec16ComputePKBaseOTsEv
00000000000ec940 W _ZN8OTExtRec16OTReceiverThread10ThreadMainEv
00000000000ec980 W _ZN8OTExtRec16OTReceiverThreadD0Ev
00000000000ec960 W _ZN8OTExtRec16OTReceiverThreadD1Ev
00000000000ec960 W _ZN8OTExtRec16OTReceiverThreadD2Ev
00000000000eb580 T _ZN8OTExtRec16ReceiveAndUnMaskEP7channelPSt5queueIP10mask_blockSt5dequeIS4_SaIS4_EEE
00000000000eb910 T _ZN8OTExtRec25ReceiveAndXORCorRobVectorEP10CBitVectormP7channel
00000000000ec4a0 T _ZN8OTExtRec7receiveEmmmP10CBitVectorS1_13snd_ot_flavor13rec_ot_flavorjP15MaskingFunction
00000000000eb970 T _ZN8OTExtRec8verifyOTEm
00000000000ead10 T _ZN8OTExtRec9SendMasksEP10CBitVectorP7channelmmm
00000000000ec7a0 T _ZN8OTExtRec9SetOutputEP10CBitVectormmPSt5queueIP10mask_blockSt5dequeIS4_SaIS4_EEEP7channel
0000000000067490 W _ZN8OTExtRecD0Ev
00000000000673a0 W _ZN8OTExtRecD1Ev
00000000000673a0 W _ZN8OTExtRecD2Ev
00000000000ecfe0 T _ZN8OTExtSnd10HashValuesEP10CBitVectorS1_S1_S1_mmPPm
00000000000ede50 T _ZN8OTExtSnd10start_sendEj
00000000000eda10 T _ZN8OTExtSnd11MaskAndSendEP10CBitVectormmP7channel
00000000000ecd20 T _ZN8OTExtSnd12BuildQMatrixEP10CBitVectormmP17evp_cipher_ctx_st
00000000000ecec0 T _ZN8OTExtSnd12ReceiveMasksEP10CBitVectorP7channelmm
00000000000ece10 T _ZN8OTExtSnd13UnMaskBaseOTsEP10CBitVectorS1_S1_m
00000000000ee460 W _ZN8OTExtSnd14OTSenderThread10ThreadMainEv
00000000000ee4a0 W _ZN8OTExtSnd14OTSenderThreadD0Ev
00000000000ee480 W _ZN8OTExtSnd14OTSenderThreadD1Ev
00000000000ee480 W _ZN8OTExtSnd14OTSenderThreadD2Ev
00000000000ee150 T _ZN8OTExtSnd16ComputePKBaseOTsEv
00000000000ecf60 T _ZN8OTExtSnd30GenerateSendAndXORCorRobVectorEP10CBitVectormP7channel
00000000000ee100 T _ZN8OTExtSnd4sendEmmmPP10CBitVector13snd_ot_flavor13rec_ot_flavorjP15MaskingFunction
00000000000edb40 T _ZN8OTExtSnd8verifyOTEm
0000000000067210 W _ZN8OTExtSndD0Ev
0000000000067090 W _ZN8OTExtSndD1Ev
0000000000067090 W _ZN8OTExtSndD2Ev
00000000000a3750 T _ZN8SetupLUT11AssignInputER10CBitVector
000000000009bd90 T _ZN8SetupLUT12InitNewLayerEv
00000000000a3cd0 W _ZN8SetupLUT12sharing_typeEv
00000000000a15e0 T _ZN8SetupLUT13GetDataToSendERSt6vectorIPhSaIS1_EERS0_ImSaImEE
00000000000a3ce0 W _ZN8SetupLUT15InstantiateGateEP4GATE
000000000009c390 T _ZN8SetupLUT16EvaluateSIMDGateEj
000000000009b910 T _ZN8SetupLUT16FinishSetupPhaseEP8ABYSetup
000000000009c000 T _ZN8SetupLUT17AssignInputSharesEv
000000000009b890 T _ZN8SetupLUT17PerformSetupPhaseEP8ABYSetup
000000000009e120 T _ZN8SetupLUT17PrepareSetupPhaseEP8ABYSetup
000000000009c170 T _ZN8SetupLUT18AssignOutputSharesEv
000000000009c350 T _ZN8SetupLUT18FinishCircuitLayerEv
000000000009bf60 T _ZN8SetupLUT18PrepareOnlinePhaseEv
00000000000a1210 T _ZN8SetupLUT19GetBuffersToReceiveERSt6vectorIPhSaIS1_EERS0_ImSaImEE
00000000000a3cb0 W _ZN8SetupLUT19PreComputationPhaseEv
00000000000a3d10 W _ZN8SetupLUT21SenderEvaluateTTGatesEv
000000000009b8a0 T _ZN8SetupLUT22GetCircuitBuildRoutineEv
00000000000a1ed0 T _ZN8SetupLUT23EvaluateLocalOperationsEj
00000000000a4420 W _ZN8SetupLUT23ReceiverEvaluateTTGatesEv
000000000009b8b0 T _ZN8SetupLUT25GetMaxCommunicationRoundsEv
00000000000a3cc0 W _ZN8SetupLUT25GetNumNonLinearOperationsEv
000000000009bb30 T _ZN8SetupLUT26PrintPerformanceStatisticsEv
00000000000a2a20 T _ZN8SetupLUT29EvaluateInteractiveOperationsEj
000000000009caa0 T _ZN8SetupLUT4InitEv
000000000009fbf0 T _ZN8SetupLUT5ResetEv
00000000000a3a70 T _ZN8SetupLUT9GetOutputER10CBitVector
000000000009df50 T _ZN8SetupLUTC1E9e_sharing6e_rolejP10ABYCircuitP6cryptoRKNSt7__cxx1112basic_stringIcSt11char_traitsIcESaIcEEE
000000000009df50 T _ZN8SetupLUTC2E9e_sharing6e_rolejP10ABYCircuitP6cryptoRKNSt7__cxx1112basic_stringIcSt11char_traitsIcESaIcEEE
00000000000a11f0 T _ZN8SetupLUTD0Ev
00000000000a0400 T _ZN8SetupLUTD1Ev
00000000000a0400 T _ZN8SetupLUTD2Ev
00000000000c9e40 W _ZN8UINTType7getTypeEv
00000000000af890 W _ZN8YaoKeyLT10XOR_QUAD_BEPhS0_S0_
00000000000af860 W _ZN8YaoKeyLT12XOR_DOUBLE_BEPhS0_S0_
00000000000af840 W _ZN8YaoKeyLT3XOREPhS0_S0_
00000000000afaa0 W _ZN8YaoKeyLTD0Ev
00000000000af830 W _ZN8YaoKeyLTD1Ev
00000000000af830 W _ZN8YaoKeyLTD2Ev
00000000000af810 W _ZN8YaoKeyMT10XOR_QUAD_BEPhS0_S0_
00000000000af7e0 W _ZN8YaoKeyMT12XOR_DOUBLE_BEPhS0_S0_
00000000000af7c0 W _ZN8YaoKeyMT3XOREPhS0_S0_
00000000000afa70 W _ZN8YaoKeyMTD0Ev
00000000000af7b0 W _ZN8YaoKeyMTD1Ev
00000000000af7b0 W _ZN8YaoKeyMTD2Ev
00000000000af790 W _ZN8YaoKeyST10XOR_QUAD_BEPhS0_S0_
00000000000af760 W _ZN8YaoKeyST12XOR_DOUBLE_BEPhS0_S0_
00000000000af740 W _ZN8YaoKeyST3XOREPhS0_S0_
00000000000afa60 W _ZN8YaoKeySTD0Ev
00000000000af730 W _ZN8YaoKeySTD1Ev
00000000000af730 W _ZN8YaoKeySTD2Ev
0000000000075040 T _ZN9boolshare19get_clear_value_ptrEv
0000000000075150 T _ZN9boolshare19get_clear_value_vecEPPjS0_S0_
0000000000075280 T _ZN9boolshare19get_clear_value_vecEPPmPjS2_
0000000000075b00 T _ZN9boolshare21get_internal_yao_keysEv
0000000000075f40 T _ZN9boolshare22get_share_from_wire_idEj
00000000000c9f70 W _ZN9boolshareC1ESt6vectorIjSaIjEEP7Circuit
00000000000c9f70 W _ZN9boolshareC2ESt6vectorIjSaIjEEP7Circuit
00000000000760e0 W _ZN9boolshareD0Ev
00000000000760a0 W _ZN9boolshareD1Ev
00000000000760a0 W _ZN9boolshareD2Ev
00000000000d48d0 T _ZN9ecc_field10get_rnd_feEv
00000000000d4630 T _ZN9ecc_field11get_contextEv
00000000000d4ed0 T _ZN9ecc_field11get_rnd_numEj
00000000000d47b0 T _ZN9ecc_field13get_generatorEv
00000000000d3f70 T _ZN9ecc_field13num_byte_sizeEv
00000000000d3f80 T _ZN9ecc_field14get_field_sizeEv
00000000000d48d0 T _ZN9ecc_field17get_rnd_generatorEv
00000000000d4840 T _ZN9ecc_field19sample_random_pointEv
00000000000d48e0 T _ZN9ecc_field4initE14SECURITYLEVELSPh
00000000000d46e0 T _ZN9ecc_field6get_feEv
00000000000d4d40 T _ZN9ecc_field7get_numEv
00000000000d3f80 T _ZN9ecc_field8get_sizeEv
00000000000d5620 T _ZN9ecc_field9get_brickEP2fe
00000000000d4e30 T _ZN9ecc_field9get_orderEv
00000000000d4610 T _ZN9ecc_fieldD0Ev
00000000000d4520 T _ZN9ecc_fieldD1Ev
00000000000d4520 T _ZN9ecc_fieldD2Ev
00000000000d7c10 T _ZN9RcvThread10ThreadMainEv
00000000000d79c0 T _ZN9RcvThread11flush_queueEh
00000000000d80c0 T _ZN9RcvThread12add_listenerEhP6CEventS1_
00000000000d7ba0 T _ZN9RcvThread15remove_listenerEh
00000000000d8210 T _ZN9RcvThread18get_listener_mutexEh
00000000000d79b0 T _ZN9RcvThread7setlockEP5CLock
00000000000d7870 T _ZN9RcvThreadC1EP7CSocketP5CLock
00000000000d7870 T _ZN9RcvThreadC2EP7CSocketP5CLock
00000000000d7b80 T _ZN9RcvThreadD0Ev
00000000000d7ad0 T _ZN9RcvThreadD1Ev
00000000000d7ad0 T _ZN9RcvThreadD2Ev
00000000000d8ce0 T _ZN9SndThread10signal_endEh
00000000000d8230 T _ZN9SndThread10ThreadMainEv
00000000000d8cc0 T _ZN9SndThread12add_snd_taskEhmPh
00000000000d8bf0 T _ZN9SndThread18add_event_snd_taskEP6CEventhmPh
00000000000d8bc0 T _ZN9SndThread22add_snd_task_start_lenEhmPhmm
00000000000d8ad0 T _ZN9SndThread28add_event_snd_task_start_lenEP6CEventhmPhmm
00000000000d8860 T _ZN9SndThread4stopEv
00000000000d8540 T _ZN9SndThread7setlockEP5CLock
00000000000d87a0 T _ZN9SndThread9kill_taskEv
00000000000d8550 T _ZN9SndThread9push_taskESt10unique_ptrINS_8snd_taskESt14default_deleteIS1_EE
00000000000d8420 T _ZN9SndThreadC1EP7CSocketP5CLock
00000000000d8420 T _ZN9SndThreadC2EP7CSocketP5CLock
00000000000d8ab0 T _ZN9SndThreadD0Ev
00000000000d8870 T _ZN9SndThreadD1Ev
00000000000d8870 T _ZN9SndThreadD2Ev
00000000000af940 W _ZN9YaoKeyXLT10XOR_QUAD_BEPhS0_S0_
00000000000af8f0 W _ZN9YaoKeyXLT12XOR_DOUBLE_BEPhS0_S0_
00000000000af8c0 W _ZN9YaoKeyXLT3XOREPhS0_S0_
00000000000afa80 W _ZN9YaoKeyXLTD0Ev
00000000000af8b0 W _ZN9YaoKeyXLTD1Ev
00000000000af8b0 W _ZN9YaoKeyXLTD2Ev
                 U _Znam
00000000000cd520 T _ZNK10CBitVector12GetBitNoMaskEm
00000000000cd3c0 T _ZNK10CBitVector16GetElementLengthEv
00000000000ce820 T _ZNK10CBitVector6GetArrEv
00000000000cd440 T _ZNK10CBitVector6GetBitEm
00000000000cd7e0 T _ZNK10CBitVector7GetBitsEPhmm
00000000000cd5b0 T _ZNK10CBitVector7GetByteEm
00000000000cd3a0 T _ZNK10CBitVector7GetSizeEv
00000000000ce830 T _ZNK10CBitVector7IsEqualERKS_
00000000000cd460 T _ZNK10CBitVector7IsEqualERKS_mm
00000000000cd5e0 T _ZNK10CBitVector8GetBytesEPhmm
00000000000e1120 W _ZNK5boost10wrapexceptINS_4asio21invalid_service_ownerEE5cloneEv
000000000004f3ea W _ZNK5boost10wrapexceptINS_4asio21invalid_service_ownerEE7rethrowEv
00000000000e1010 W _ZNK5boost10wrapexceptINS_4asio22service_already_existsEE5cloneEv
000000000004f4c4 W _ZNK5boost10wrapexceptINS_4asio22service_already_existsEE7rethrowEv
00000000000e0f00 W _ZNK5boost10wrapexceptINS_4asio2ip16bad_address_castEE5cloneEv
000000000004f67c W _ZNK5boost10wrapexceptINS_4asio2ip16bad_address_castEE7rethrowEv
00000000000e1360 W _ZNK5boost10wrapexceptINS_4asio9execution12bad_executorEE5cloneEv
000000000004f59e W _ZNK5boost10wrapexceptINS_4asio9execution12bad_executorEE7rethrowEv
00000000000e1230 W _ZNK5boost10wrapexceptINS_6system12system_errorEE5cloneEv
00000000000502aa W _ZNK5boost10wrapexceptINS_6system12system_errorEE7rethrowEv
00000000000e6c50 W _ZNK5boost4asio10io_context19basic_executor_typeISaIvELj0EE7executeINS0_6detail17executor_functionEEEvOT_
00000000000e6f40 W _ZNK5boost4asio10io_context19basic_executor_typeISaIvELj4EE7executeINS0_6detail17executor_functionEEEvOT_
00000000000dcba0 W _ZNK5boost4asio19multiple_exceptions4whatEv
00000000000dcd90 W _ZNK5boost4asio2ip16bad_address_cast4whatEv
00000000000dcd30 W _ZNK5boost4asio5error6detail13misc_category4nameEv
00000000000dfbb0 W _ZNK5boost4asio5error6detail13misc_category7messageB5cxx11Ei
00000000000dcd10 W _ZNK5boost4asio5error6detail14netdb_category4nameEv
00000000000dfaf0 W _ZNK5boost4asio5error6detail14netdb_category7messageB5cxx11Ei
00000000000dcd20 W _ZNK5boost4asio5error6detail17addrinfo_category4nameEv
00000000000e0300 W _ZNK5boost4asio5error6detail17addrinfo_category7messageB5cxx11Ei
00000000000dcbb0 W _ZNK5boost4asio9execution12bad_executor4whatEv
00000000000df1b0 W _ZNK5boost6system12system_error4whatEv
00000000000de070 W _ZNK5boost6system14error_category10equivalentEiRKNS0_15error_conditionE
00000000000dcc60 W _ZNK5boost6system14error_category10equivalentERKNS0_10error_codeEi
00000000000dcc50 W _ZNK5boost6system14error_category23default_error_conditionEi
00000000000dcc20 W _ZNK5boost6system14error_category6failedEi
00000000000ddf80 W _ZNK5boost6system14error_category7messageEiPcm
00000000000e6140 W _ZNK5boost6system6detail12std_category10equivalentEiRKSt15error_condition
00000000000e5ec0 W _ZNK5boost6system6detail12std_category10equivalentERKSt10error_codei
00000000000e6120 W _ZNK5boost6system6detail12std_category23default_error_conditionEi
00000000000dcca0 W _ZNK5boost6system6detail12std_category4nameEv
00000000000dccb0 W _ZNK5boost6system6detail12std_category7messageB5cxx11Ei
00000000000dccd0 W _ZNK5boost6system6detail21system_error_category23default_error_conditionEi
00000000000dcc40 W _ZNK5boost6system6detail21system_error_category4nameEv
00000000000e0220 W _ZNK5boost6system6detail21system_error_category7messageB5cxx11Ei
00000000000dd6d0 W _ZNK5boost6system6detail21system_error_category7messageEiPcm
00000000000dcc30 W _ZNK5boost6system6detail22generic_error_category4nameEv
00000000000e0140 W _ZNK5boost6system6detail22generic_error_category7messageB5cxx11Ei
00000000000dd6e0 W _ZNK5boost6system6detail22generic_error_category7messageEiPcm
00000000000e7580 T _ZNK6CEvent5IsSetEv
00000000000cfa10 T _ZNK7channel11queue_emptyEv
00000000000d9b60 T _ZNK7CSocket5GetIPB5cxx11Ev
00000000000d9fc0 T _ZNK7CSocket7GetPortEv
00000000000d9280 T _ZNK7CSocket9getRcvCntEv
00000000000d9230 T _ZNK7CSocket9getSndCntEv
00000000000e7390 T _ZNK7CThread9IsRunningEv
000000000005b350 T _ZNK8ABYParty9bench_aesEv
00000000000d79a0 T _ZNK9RcvThread7getlockEv
00000000000d8530 T _ZNK9SndThread7getlockEv
                 U _ZNKSt10filesystem7__cxx114path5_List13_Impl_deleterclEPNS2_5_ImplE
                 U _ZNKSt11logic_error4whatEv
                 U _ZNKSt12__basic_fileIcE7is_openEv
                 U _ZNKSt13runtime_error4whatEv
                 U _ZNKSt3_V214error_category10_M_messageB5cxx11Ei
                 U _ZNKSt5ctypeIcE13_M_widen_initEv
00000000000599d0 W _ZNKSt5ctypeIcE8do_widenEc
                 U _ZNKSt7__cxx1112basic_stringIcSt11char_traitsIcESaIcEE13find_first_ofEPKcmm
                 U _ZNKSt7__cxx1112basic_stringIcSt11char_traitsIcESaIcEE17find_first_not_ofEPKcmm
                 U _ZNKSt7__cxx1112basic_stringIcSt11char_traitsIcESaIcEE4copyEPcmm
                 U _ZNKSt7__cxx1112basic_stringIcSt11char_traitsIcESaIcEE7compareEmmPKc
                 U _ZNKSt7__cxx1112basic_stringIcSt11char_traitsIcESaIcEE7compareEPKc
                 U _ZNSo3putEc
                 U _ZNSo5flushEv
                 U _ZNSo9_M_insertIdEERSoT_
                 U _ZNSo9_M_insertImEERSoT_
                 U _ZNSo9_M_insertIPKvEERSoT_
                 U _ZNSolsEi
                 U _ZNSt10filesystem11resize_fileERKNS_7__cxx114pathEmRSt10error_code
                 U _ZNSt10filesystem6removeERKNS_7__cxx114pathE
                 U _ZNSt10filesystem6statusERKNS_7__cxx114pathE
                 U _ZNSt10filesystem7__cxx114path14_M_split_cmptsEv
                 U _ZNSt10filesystem7__cxx114path5_ListC1Ev
0000000000098170 W _ZNSt10filesystem7__cxx114pathD1Ev
0000000000098170 W _ZNSt10filesystem7__cxx114pathD2Ev
                 U _ZNSt10filesystem8is_emptyERKNS_7__cxx114pathE
                 U _ZNSt10filesystem9file_sizeERKNS_7__cxx114pathE
00000000000cff40 W _ZNSt10unique_ptrI6CEventSt14default_deleteIS0_EED1Ev
00000000000cff40 W _ZNSt10unique_ptrI6CEventSt14default_deleteIS0_EED2Ev
00000000000d04c0 W _ZNSt10unique_ptrI7CSocketSt14default_deleteIS0_EED1Ev
00000000000d04c0 W _ZNSt10unique_ptrI7CSocketSt14default_deleteIS0_EED2Ev
00000000000633b0 W _ZNSt10unique_ptrI8comm_ctxSt14default_deleteIS0_EED1Ev
00000000000633b0 W _ZNSt10unique_ptrI8comm_ctxSt14default_deleteIS0_EED2Ev
00000000000826f0 W _ZNSt11_Deque_baseIjSaIjEE17_M_initialize_mapEm
0000000000071320 W _ZNSt11_Deque_baseIjSaIjEED1Ev
0000000000071320 W _ZNSt11_Deque_baseIjSaIjEED2Ev
                 U _ZNSt11logic_errorC2EPKc
                 U _ZNSt11logic_errorC2ERKS_
                 U _ZNSt11logic_errorD2Ev
                 U _ZNSt12__basic_fileIcED1Ev
000000000009a550 W _ZNSt12_Destroy_auxILb0EE9__destroyIP11tt_lens_ctxEEvT_S4_
                 U _ZNSt13basic_filebufIcSt11char_traitsIcEE4openEPKcSt13_Ios_Openmode
                 U _ZNSt13basic_filebufIcSt11char_traitsIcEE5closeEv
                 U _ZNSt13basic_filebufIcSt11char_traitsIcEEC1Ev
                 U _ZNSt13basic_filebufIcSt11char_traitsIcEED1Ev
                 U _ZNSt13runtime_errorC2EPKc
                 U _ZNSt13runtime_errorC2ERKS_
                 U _ZNSt13runtime_errorD2Ev
                 U _ZNSt14basic_ifstreamIcSt11char_traitsIcEEC1Ev
                 U _ZNSt14basic_ifstreamIcSt11char_traitsIcEED1Ev
                 U _ZNSt14basic_ofstreamIcSt11char_traitsIcEE5closeEv
                 U _ZNSt14basic_ofstreamIcSt11char_traitsIcEED1Ev
0000000000088600 W _ZNSt15_Deque_iteratorIjRjPjEpLEl
00000000000dcda0 W _ZNSt15__exception_ptr12__dest_thunkIN5boost4asio19multiple_exceptionsEEEvPv
                 U _ZNSt15__exception_ptr13exception_ptr4swapERS0_
                 U _ZNSt15__exception_ptr13exception_ptrC1EPv
                 U _ZNSt15__exception_ptr13exception_ptrC1ERKS0_
                 U _ZNSt15__exception_ptr13exception_ptrC1Ev
                 U _ZNSt15__exception_ptr13exception_ptrD1Ev
00000000000dd630 W _ZNSt15_Sp_counted_ptrIPSt6vectorIN5boost4asio2ip20basic_resolver_entryINS3_3tcpEEESaIS6_EELN9__gnu_cxx12_Lock_policyE2EE10_M_destroyEv
00000000000de350 W _ZNSt15_Sp_counted_ptrIPSt6vectorIN5boost4asio2ip20basic_resolver_entryINS3_3tcpEEESaIS6_EELN9__gnu_cxx12_Lock_policyE2EE10_M_disposeEv
00000000000dd3c0 W _ZNSt15_Sp_counted_ptrIPSt6vectorIN5boost4asio2ip20basic_resolver_entryINS3_3tcpEEESaIS6_EELN9__gnu_cxx12_Lock_policyE2EE14_M_get_deleterERKSt9type_info
00000000000dd620 W _ZNSt15_Sp_counted_ptrIPSt6vectorIN5boost4asio2ip20basic_resolver_entryINS3_3tcpEEESaIS6_EELN9__gnu_cxx12_Lock_policyE2EED0Ev
00000000000dd340 W _ZNSt15_Sp_counted_ptrIPSt6vectorIN5boost4asio2ip20basic_resolver_entryINS3_3tcpEEESaIS6_EELN9__gnu_cxx12_Lock_policyE2EED1Ev
00000000000dd340 W _ZNSt15_Sp_counted_ptrIPSt6vectorIN5boost4asio2ip20basic_resolver_entryINS3_3tcpEEESaIS6_EELN9__gnu_cxx12_Lock_policyE2EED2Ev
00000000000e5970 W _ZNSt16_Sp_counted_baseILN9__gnu_cxx12_Lock_policyE2EE10_M_releaseEv
                 U _ZNSt18condition_variable10notify_oneEv
                 U _ZNSt18condition_variable4waitERSt11unique_lockISt5mutexE
                 U _ZNSt18condition_variableC1Ev
                 U _ZNSt18condition_variableD1Ev
00000000000dd680 W _ZNSt19_Sp_counted_deleterIPvN5boost4asio6detail10socket_ops12noop_deleterESaIvELN9__gnu_cxx12_Lock_policyE2EE10_M_destroyEv
00000000000dd3f0 W _ZNSt19_Sp_counted_deleterIPvN5boost4asio6detail10socket_ops12noop_deleterESaIvELN9__gnu_cxx12_Lock_policyE2EE10_M_disposeEv
00000000000de2c0 W _ZNSt19_Sp_counted_deleterIPvN5boost4asio6detail10socket_ops12noop_deleterESaIvELN9__gnu_cxx12_Lock_policyE2EE14_M_get_deleterERKSt9type_info
00000000000dd640 W _ZNSt19_Sp_counted_deleterIPvN5boost4asio6detail10socket_ops12noop_deleterESaIvELN9__gnu_cxx12_Lock_policyE2EED0Ev
00000000000dd3e0 W _ZNSt19_Sp_counted_deleterIPvN5boost4asio6detail10socket_ops12noop_deleterESaIvELN9__gnu_cxx12_Lock_policyE2EED1Ev
00000000000dd3e0 W _ZNSt19_Sp_counted_deleterIPvN5boost4asio6detail10socket_ops12noop_deleterESaIvELN9__gnu_cxx12_Lock_policyE2EED2Ev
00000000000dd670 W _ZNSt23_Sp_counted_ptr_inplaceIN5boost4asio10io_contextESaIS2_ELN9__gnu_cxx12_Lock_policyE2EE10_M_destroyEv
00000000000df2d0 W _ZNSt23_Sp_counted_ptr_inplaceIN5boost4asio10io_contextESaIS2_ELN9__gnu_cxx12_Lock_policyE2EE10_M_disposeEv
00000000000de300 W _ZNSt23_Sp_counted_ptr_inplaceIN5boost4asio10io_contextESaIS2_ELN9__gnu_cxx12_Lock_policyE2EE14_M_get_deleterERKSt9type_info
00000000000dd660 W _ZNSt23_Sp_counted_ptr_inplaceIN5boost4asio10io_contextESaIS2_ELN9__gnu_cxx12_Lock_policyE2EED0Ev
00000000000dd3d0 W _ZNSt23_Sp_counted_ptr_inplaceIN5boost4asio10io_contextESaIS2_ELN9__gnu_cxx12_Lock_policyE2EED1Ev
00000000000dd3d0 W _ZNSt23_Sp_counted_ptr_inplaceIN5boost4asio10io_contextESaIS2_ELN9__gnu_cxx12_Lock_policyE2EED2Ev
00000000000cb6c0 W _ZNSt3mapIjjSt4lessIjESaISt4pairIKjjEEEixERS3_
00000000000df630 W _ZNSt3mapIPKN5boost6system14error_categoryESt10unique_ptrINS1_6detail12std_categoryESt14default_deleteIS7_EENS6_12cat_ptr_lessESaISt4pairIKS4_SA_EEED1Ev
00000000000df630 W _ZNSt3mapIPKN5boost6system14error_categoryESt10unique_ptrINS1_6detail12std_categoryESt14default_deleteIS7_EENS6_12cat_ptr_lessESaISt4pairIKS4_SA_EEED2Ev
                 U _ZNSt3_V214error_categoryD2Ev
                 U _ZNSt3_V215system_categoryEv
                 U _ZNSt3_V216generic_categoryEv
00000000000ae570 W _ZNSt5dequeI14a2y_gate_pos_tSaIS0_EE16_M_push_back_auxIJRKS0_EEEvDpOT_
00000000000ae360 W _ZNSt5dequeI16input_gate_val_tSaIS0_EE16_M_push_back_auxIJRKS0_EEEvDpOT_
0000000000071380 W _ZNSt5dequeIjSaIjEE16_M_push_back_auxIJRKjEEEvDpOT_
00000000000887e0 W _ZNSt5dequeIjSaIjEEC1ERKS1_
00000000000887e0 W _ZNSt5dequeIjSaIjEEC2ERKS1_
00000000000ecb20 W _ZNSt5dequeIP10mask_blockSaIS1_EE16_M_push_back_auxIJRKS1_EEEvDpOT_
                 U _ZNSt6locale7classicEv
                 U _ZNSt6localeC1Ev
                 U _ZNSt6localeD1Ev
                 U _ZNSt6thread15_M_start_threadESt10unique_ptrINS_6_StateESt14default_deleteIS1_EEPFvvE
                 U _ZNSt6thread4joinEv
                 U _ZNSt6thread6_StateD2Ev
00000000000846f0 W _ZNSt6vectorI10CBitVectorSaIS0_EE17_M_default_appendEm
0000000000062d60 W _ZNSt6vectorI10CBitVectorSaIS0_EED1Ev
0000000000062d60 W _ZNSt6vectorI10CBitVectorSaIS0_EED2Ev
00000000000995f0 W _ZNSt6vectorI11tt_lens_ctxSaIS0_EE17_M_default_appendEm
000000000009a5a0 W _ZNSt6vectorI11tt_lens_ctxSaIS0_EED1Ev
000000000009a5a0 W _ZNSt6vectorI11tt_lens_ctxSaIS0_EED2Ev
000000000006c3a0 W _ZNSt6vectorI4GATESaIS0_EE17_M_default_appendEm
00000000000d8cf0 W _ZNSt6vectorIhSaIhEE17_M_default_appendEm
000000000006c5d0 W _ZNSt6vectorIjSaIjEE14_M_fill_insertEN9__gnu_cxx17__normal_iteratorIPjS1_EEmRKj
0000000000076120 W _ZNSt6vectorIjSaIjEE17_M_default_appendEm
00000000000d7060 W _ZNSt6vectorIjSaIjEE17_M_realloc_insertIJjEEEvN9__gnu_cxx17__normal_iteratorIPjS1_EEDpOT_
0000000000099c60 W _ZNSt6vectorIjSaIjEE17_M_realloc_insertIJRKjEEEvN9__gnu_cxx17__normal_iteratorIPjS1_EEDpOT_
00000000000cba10 W _ZNSt6vectorIjSaIjEE6resizeEm
00000000000cb9d0 W _ZNSt6vectorIjSaIjEE6resizeEmRKj
00000000000cb490 W _ZNSt6vectorIjSaIjEEC1ERKS1_
00000000000cb490 W _ZNSt6vectorIjSaIjEEC2ERKS1_
0000000000087080 W _ZNSt6vectorImSaImEE12emplace_backIJmEEERmDpOT_
0000000000086f10 W _ZNSt6vectorImSaImEE17_M_realloc_insertIJmEEEvN9__gnu_cxx17__normal_iteratorIPmS1_EEDpOT_
00000000000a5a60 W _ZNSt6vectorImSaImEE17_M_realloc_insertIJRKmEEEvN9__gnu_cxx17__normal_iteratorIPmS1_EEDpOT_
00000000000e62d0 W _ZNSt6vectorIN5boost4asio2ip20basic_resolver_entryINS2_3tcpEEESaIS5_EE17_M_realloc_insertIJS5_EEEvN9__gnu_cxx17__normal_iteratorIPS5_S7_EEDpOT_
0000000000067720 W _ZNSt6vectorIP10CBitVectorSaIS1_EE17_M_default_appendEm
00000000000ee4d0 W _ZNSt6vectorIP10CBitVectorSaIS1_EE17_M_realloc_insertIJRKS1_EEEvN9__gnu_cxx17__normal_iteratorIPS1_S3_EEDpOT_
0000000000068120 W _ZNSt6vectorIP11IKNP_OTTaskSaIS1_EE17_M_default_appendEm
0000000000083300 W _ZNSt6vectorIP11IKNP_OTTaskSaIS1_EE17_M_realloc_insertIJRKS1_EEEvN9__gnu_cxx17__normal_iteratorIPS1_S3_EEDpOT_
0000000000083470 W _ZNSt6vectorIP11PKMTGenValsSaIS1_EE17_M_realloc_insertIJRKS1_EEEvN9__gnu_cxx17__normal_iteratorIPS1_S3_EEDpOT_
0000000000067590 W _ZNSt6vectorIP17evp_cipher_ctx_stSaIS1_EE17_M_default_appendEm
00000000000ec9b0 W _ZNSt6vectorIP17evp_cipher_ctx_stSaIS1_EE17_M_realloc_insertIJRKS1_EEEvN9__gnu_cxx17__normal_iteratorIPS1_S3_EEDpOT_
00000000000835e0 W _ZNSt6vectorIP4GATESaIS1_EE17_M_realloc_insertIJRKS1_EEEvN9__gnu_cxx17__normal_iteratorIPS1_S3_EEDpOT_
0000000000064d20 W _ZNSt6vectorIP7SharingSaIS1_EE17_M_default_appendEm
00000000000682b0 W _ZNSt6vectorIP9KK_OTTaskSaIS1_EE17_M_default_appendEm
0000000000099480 W _ZNSt6vectorIP9KK_OTTaskSaIS1_EE17_M_realloc_insertIJRKS1_EEEvN9__gnu_cxx17__normal_iteratorIPS1_S3_EEDpOT_
0000000000086ed0 W _ZNSt6vectorIPhSaIS0_EE12emplace_backIJS0_EEERS0_DpOT_
00000000000a58f0 W _ZNSt6vectorIPhSaIS0_EE17_M_realloc_insertIJRKS0_EEEvN9__gnu_cxx17__normal_iteratorIPS0_S2_EEDpOT_
0000000000086d60 W _ZNSt6vectorIPhSaIS0_EE17_M_realloc_insertIJS0_EEEvN9__gnu_cxx17__normal_iteratorIPS0_S2_EEDpOT_
00000000000cce80 W _ZNSt6vectorIPmSaIS0_EE17_M_realloc_insertIJRKS0_EEEvN9__gnu_cxx17__normal_iteratorIPS0_S2_EEDpOT_
0000000000064b90 W _ZNSt6vectorIPN8ABYParty18CPartyWorkerThreadESaIS2_EE17_M_default_appendEm
0000000000067f90 W _ZNSt6vectorIPN8ABYSetup13CWorkerThreadESaIS2_EE17_M_default_appendEm
00000000000a5760 W _ZNSt6vectorIPP10CBitVectorSaIS2_EE17_M_default_appendEm
00000000000a4d10 W _ZNSt6vectorIS_I11tt_lens_ctxSaIS0_EESaIS2_EE17_M_default_appendEm
00000000000982e0 W _ZNSt6vectorIS_I11tt_lens_ctxSaIS0_EESaIS2_EED1Ev
00000000000982e0 W _ZNSt6vectorIS_I11tt_lens_ctxSaIS0_EESaIS2_EED2Ev
00000000000998f0 W _ZNSt6vectorIS_IjSaIjEESaIS1_EE17_M_default_appendEm
00000000000cb520 W _ZNSt6vectorIS_IjSaIjEESaIS1_EEC1ERKS3_
00000000000cb520 W _ZNSt6vectorIS_IjSaIjEESaIS1_EEC2ERKS3_
00000000000a48f0 W _ZNSt6vectorIS_IjSaIjEESaIS1_EED1Ev
00000000000a48f0 W _ZNSt6vectorIS_IjSaIjEESaIS1_EED2Ev
0000000000064900 W _ZNSt6vectorIS_ImSaImEESaIS1_EED1Ev
0000000000064900 W _ZNSt6vectorIS_ImSaImEESaIS1_EED2Ev
00000000000a53f0 W _ZNSt6vectorIS_IP10CBitVectorSaIS1_EESaIS3_EE17_M_default_appendEm
00000000000a4960 W _ZNSt6vectorIS_IP10CBitVectorSaIS1_EESaIS3_EED1Ev
00000000000a4960 W _ZNSt6vectorIS_IP10CBitVectorSaIS1_EESaIS3_EED2Ev
00000000000678b0 W _ZNSt6vectorIS_IP11IKNP_OTTaskSaIS1_EESaIS3_EE17_M_default_appendEm
0000000000067c20 W _ZNSt6vectorIS_IP9KK_OTTaskSaIS1_EESaIS3_EE17_M_default_appendEm
0000000000064890 W _ZNSt6vectorIS_IPhSaIS0_EESaIS2_EED1Ev
0000000000064890 W _ZNSt6vectorIS_IPhSaIS0_EESaIS2_EED2Ev
00000000000a5080 W _ZNSt6vectorIS_IPP10CBitVectorSaIS2_EESaIS4_EE17_M_default_appendEm
00000000000a49d0 W _ZNSt6vectorIS_IS_I11tt_lens_ctxSaIS0_EESaIS2_EESaIS4_EE17_M_default_appendEm
00000000000981b0 W _ZNSt6vectorIS_IS_I11tt_lens_ctxSaIS0_EESaIS2_EESaIS4_EED1Ev
00000000000981b0 W _ZNSt6vectorIS_IS_I11tt_lens_ctxSaIS0_EESaIS2_EESaIS4_EED2Ev
0000000000064970 W _ZNSt6vectorISt10unique_ptrI7CSocketSt14default_deleteIS1_EESaIS4_EE17_M_default_appendEm
0000000000072410 W _ZNSt6vectorISt5dequeIjSaIjEESaIS2_EE17_M_default_appendEm
0000000000082650 W _ZNSt6vectorISt5dequeIjSaIjEESaIS2_EED1Ev
0000000000082650 W _ZNSt6vectorISt5dequeIjSaIjEESaIS2_EED2Ev
                 U _ZNSt7__cxx1112basic_stringIcSt11char_traitsIcESaIcEE10_M_replaceEmmPKcm
                 U _ZNSt7__cxx1112basic_stringIcSt11char_traitsIcESaIcEE12_M_constructEmc
                 U _ZNSt7__cxx1112basic_stringIcSt11char_traitsIcESaIcEE9_M_appendEPKcm
                 U _ZNSt7__cxx1112basic_stringIcSt11char_traitsIcESaIcEE9_M_assignERKS4_
                 U _ZNSt7__cxx1112basic_stringIcSt11char_traitsIcESaIcEE9_M_createERmm
                 U _ZNSt7__cxx1119basic_ostringstreamIcSt11char_traitsIcESaIcEED1Ev
                 U _ZNSt8bad_castD2Ev
                 U _ZNSt8ios_base4InitC1Ev
                 U _ZNSt8ios_base4InitD1Ev
                 U _ZNSt8ios_baseC2Ev
                 U _ZNSt8ios_baseD2Ev
0000000000098760 W _ZNSt8_Rb_treeImSt4pairIKmmESt10_Select1stIS2_ESt4lessImESaIS2_EE8_M_eraseEPSt13_Rb_tree_nodeIS2_E
00000000000997d0 W _ZNSt8_Rb_treeImSt4pairIKmP10CBitVectorESt10_Select1stIS4_ESt4lessImESaIS4_EE17_M_emplace_uniqueIJS0_ImS3_EEEES0_ISt17_Rb_tree_iteratorIS4_EbEDpOT_
0000000000099dd0 W _ZNSt8_Rb_treeImSt4pairIKmP10CBitVectorESt10_Select1stIS4_ESt4lessImESaIS4_EE29_M_get_insert_hint_unique_posESt23_Rb_tree_const_iteratorIS4_ERS1_
0000000000098580 W _ZNSt8_Rb_treeImSt4pairIKmP10CBitVectorESt10_Select1stIS4_ESt4lessImESaIS4_EE8_M_eraseEPSt13_Rb_tree_nodeIS4_E
000000000009a2d0 W _ZNSt8_Rb_treeImSt4pairIKmP14op_lut_precompESt10_Select1stIS4_ESt4lessImESaIS4_EE29_M_get_insert_hint_unique_posESt23_Rb_tree_const_iteratorIS4_ERS1_
00000000000983a0 W _ZNSt8_Rb_treeImSt4pairIKmP14op_lut_precompESt10_Select1stIS4_ESt4lessImESaIS4_EE8_M_eraseEPSt13_Rb_tree_nodeIS4_E
000000000009a050 W _ZNSt8_Rb_treeImSt4pairIKmSt6vectorIjSaIjEEESt10_Select1stIS5_ESt4lessImESaIS5_EE29_M_get_insert_hint_unique_posESt23_Rb_tree_const_iteratorIS5_ERS1_
00000000000e5b70 W _ZNSt8_Rb_treeIPKN5boost6system14error_categoryESt4pairIKS4_St10unique_ptrINS1_6detail12std_categoryESt14default_deleteIS9_EEESt10_Select1stISD_ENS8_12cat_ptr_lessESaISD_EE16_M_insert_uniqueISD_EES5_ISt17_Rb_tree_iteratorISD_EbEOT_
00000000000e5aa0 W _ZNSt8_Rb_treeIPKN5boost6system14error_categoryESt4pairIKS4_St10unique_ptrINS1_6detail12std_categoryESt14default_deleteIS9_EEESt10_Select1stISD_ENS8_12cat_ptr_lessESaISD_EE24_M_get_insert_unique_posERS6_
                 U _ZNSt9basic_iosIcSt11char_traitsIcEE4initEPSt15basic_streambufIcS1_E
                 U _ZNSt9basic_iosIcSt11char_traitsIcEE5clearESt12_Ios_Iostate
                 U _ZNSt9basic_iosIcSt11char_traitsIcEE5imbueERKSt6locale
                 U _ZNSt9exceptionD2Ev
                 U _Znwm
0000000000088690 W _ZSt14__copy_move_a1ILb0EPjjEN9__gnu_cxx11__enable_ifIXsrSt23__is_random_access_iterIT0_NSt15iterator_traitsIS4_E17iterator_categoryEE7__valueESt15_Deque_iteratorIT1_RSA_PSA_EE6__typeES4_S4_SD_
                 U _ZSt16__ostream_insertIcSt11char_traitsIcEERSt13basic_ostreamIT_T0_ES6_PKS3_l
                 U _ZSt16__throw_bad_castv
                 U _ZSt17current_exceptionv
                 U _ZSt17rethrow_exceptionNSt15__exception_ptr13exception_ptrE
                 U _ZSt17__throw_bad_allocv
                 U _ZSt18_Rb_tree_decrementPSt18_Rb_tree_node_base
                 U _ZSt18_Rb_tree_incrementPSt18_Rb_tree_node_base
                 U _ZSt19__throw_logic_errorPKc
                 U _ZSt20__throw_length_errorPKc
                 U _ZSt20__throw_system_errori
                 U _ZSt24__throw_out_of_range_fmtPKcz
                 U _ZSt25__throw_bad_function_callv
                 U _ZSt29_Rb_tree_insert_and_rebalancebPSt18_Rb_tree_node_baseS0_RS_
                 U _ZSt4cerr
                 U _ZSt4cout
                 U _ZSt4endlIcSt11char_traitsIcEERSt13basic_ostreamIT_T0_ES6_
                 U _ZSt7getlineIcSt11char_traitsIcESaIcEERSt13basic_istreamIT_T0_ES7_RNSt7__cxx1112basic_stringIS4_S5_T1_EES4_
                 U _ZSt9terminatev
                 U _ZStlsISt11char_traitsIcEERSt13basic_ostreamIcT_ES5_PKc
00000000000dedc0 W _ZThn16_N5boost10wrapexceptINS_4asio2ip16bad_address_castEED0Ev
00000000000ddec0 W _ZThn16_N5boost10wrapexceptINS_4asio2ip16bad_address_castEED1Ev
00000000000de970 W _ZThn16_N5boost10wrapexceptINS_4asio9execution12bad_executorEED0Ev
00000000000dddb0 W _ZThn16_N5boost10wrapexceptINS_4asio9execution12bad_executorEED1Ev
00000000000dea60 W _ZThn24_N5boost10wrapexceptINS_4asio21invalid_service_ownerEED0Ev
00000000000dda50 W _ZThn24_N5boost10wrapexceptINS_4asio21invalid_service_ownerEED1Ev
00000000000dec50 W _ZThn24_N5boost10wrapexceptINS_4asio22service_already_existsEED0Ev
00000000000ddbd0 W _ZThn24_N5boost10wrapexceptINS_4asio22service_already_existsEED1Ev
00000000000df080 W _ZThn72_N5boost10wrapexceptINS_6system12system_errorEED0Ev
00000000000dee40 W _ZThn72_N5boost10wrapexceptINS_6system12system_errorEED1Ev
00000000000deae0 W _ZThn8_N5boost10wrapexceptINS_4asio21invalid_service_ownerEED0Ev
00000000000ddab0 W _ZThn8_N5boost10wrapexceptINS_4asio21invalid_service_ownerEED1Ev
00000000000debd0 W _ZThn8_N5boost10wrapexceptINS_4asio22service_already_existsEED0Ev
00000000000ddb70 W _ZThn8_N5boost10wrapexceptINS_4asio22service_already_existsEED1Ev
00000000000ded40 W _ZThn8_N5boost10wrapexceptINS_4asio2ip16bad_address_castEED0Ev
00000000000ddf20 W _ZThn8_N5boost10wrapexceptINS_4asio2ip16bad_address_castEED1Ev
00000000000de8f0 W _ZThn8_N5boost10wrapexceptINS_4asio9execution12bad_executorEED0Ev
00000000000ddd50 W _ZThn8_N5boost10wrapexceptINS_4asio9execution12bad_executorEED1Ev
00000000000df110 W _ZThn8_N5boost10wrapexceptINS_6system12system_errorEED0Ev
00000000000deed0 W _ZThn8_N5boost10wrapexceptINS_6system12system_errorEED1Ev
0000000000338aa8 V _ZTI10ABYCircuit
00000000003393f0 V _ZTI10arithshare
000000000033b5c0 V _ZTI10NaorPinkas
00000000003394c0 V _ZTI10XORMasking
0000000000339ac8 V _ZTI10YaoKeyXXLT
0000000000339ae0 V _ZTI10YaoSharing
0000000000339650 V _ZTI11BoolSharing
000000000033a200 V _ZTI11prime_field
0000000000338ae0 V _ZTI12ArithSharingIhE
0000000000338b10 V _ZTI12ArithSharingIjE
0000000000338b28 V _ZTI12ArithSharingImE
0000000000338af8 V _ZTI12ArithSharingItE
000000000033a060 V _ZTI12ecc_brickexp
000000000033a248 V _ZTI12gmp_brickexp
000000000033b4f0 V _ZTI12IKNPOTExtRec
000000000033b578 V _ZTI12IKNPOTExtSnd
00000000003394d8 V _ZTI14ArithMTMaskingIhE
0000000000339508 V _ZTI14ArithMTMaskingIjE
0000000000339520 V _ZTI14ArithMTMaskingImE
00000000003394f0 V _ZTI14ArithMTMaskingItE
0000000000339d38 V _ZTI14BooleanCircuit
00000000003394b0 V _ZTI15MaskingFunction
00000000003398b8 V _ZTI16YaoClientSharing
0000000000339988 V _ZTI16YaoServerSharing
0000000000339190 V _ZTI17ArithmeticCircuit
0000000000339ff8 V _ZTI2fe
0000000000339fe8 V _ZTI3num
0000000000339d08 V _ZTI4FP64
0000000000339088 V _ZTI5OTExt
00000000003393c8 V _ZTI5share
000000000033b508 V _ZTI6BaseOT
000000000033a048 V _ZTI6ecc_fe
0000000000339cd8 V _ZTI6FPType
000000000033a218 V _ZTI6gmp_fe
0000000000339d20 V _ZTI6UINT32
0000000000339a58 V _ZTI6YaoKey
0000000000338ab8 V _ZTI7Circuit
000000000033b4a0 V _ZTI7CThread
000000000033a030 V _ZTI7ecc_num
000000000033a230 V _ZTI7gmp_num
0000000000339720 V _ZTI7Sharing
000000000033a008 V _ZTI8brickexp
0000000000339cc8 V _ZTI8ConvType
00000000003390b0 V _ZTI8OTExtRec
0000000000339098 V _ZTI8OTExtSnd
00000000003397e8 V _ZTI8SetupLUT
0000000000339cf0 V _ZTI8UINTType
0000000000339a98 V _ZTI8YaoKeyLT
0000000000339a80 V _ZTI8YaoKeyMT
0000000000339a68 V _ZTI8YaoKeyST
00000000003393d8 V _ZTI9boolshare
000000000033a018 V _ZTI9ecc_field
0000000000339fd8 V _ZTI9pk_crypto
000000000033a3e8 V _ZTI9RcvThread
000000000033a428 V _ZTI9SndThread
0000000000339ab0 V _ZTI9YaoKeyXLT
000000000033a818 V _ZTIN5boost10wrapexceptINS_4asio21invalid_service_ownerEEE
000000000033a860 V _ZTIN5boost10wrapexceptINS_4asio22service_already_existsEEE
000000000033a8c0 V _ZTIN5boost10wrapexceptINS_4asio2ip16bad_address_castEEE
000000000033a788 V _ZTIN5boost10wrapexceptINS_4asio9execution12bad_executorEEE
000000000033a7d0 V _ZTIN5boost10wrapexceptINS_6system12system_errorEEE
000000000033a508 V _ZTIN5boost16exception_detail10clone_baseE
000000000033a968 V _ZTIN5boost4asio10io_context19basic_executor_typeISaIvELj0EEE
000000000033a9b8 V _ZTIN5boost4asio10io_context19basic_executor_typeISaIvELj4EEE
000000000033a5e8 V _ZTIN5boost4asio17execution_context7serviceE
000000000033a4e0 V _ZTIN5boost4asio19multiple_exceptionsE
000000000033a628 V _ZTIN5boost4asio21invalid_service_ownerE
000000000033a610 V _ZTIN5boost4asio22service_already_existsE
000000000033a6d0 V _ZTIN5boost4asio2ip16bad_address_castE
000000000033a5d0 V _ZTIN5boost4asio5error6detail13misc_categoryE
000000000033a5a0 V _ZTIN5boost4asio5error6detail14netdb_categoryE
000000000033a5b8 V _ZTIN5boost4asio5error6detail17addrinfo_categoryE
000000000033a4a8 V _ZTIN5boost4asio6detail11noncopyableE
000000000033a8a8 V _ZTIN5boost4asio6detail12posix_thread4funcINS1_9scheduler15thread_functionEEE
000000000033a640 V _ZTIN5boost4asio6detail12posix_thread9func_baseE
000000000033a6b8 V _ZTIN5boost4asio6detail13epoll_reactorE
000000000033a498 V _ZTIN5boost4asio6detail14thread_contextE
000000000033a918 V _ZTIN5boost4asio6detail14typeid_wrapperINS1_13epoll_reactorEEE
000000000033a990 V _ZTIN5boost4asio6detail14typeid_wrapperINS1_16resolver_serviceINS0_2ip3tcpEEEEE
000000000033a958 V _ZTIN5boost4asio6detail14typeid_wrapperINS1_23reactive_socket_serviceINS0_2ip3tcpEEEEE
000000000033a908 V _ZTIN5boost4asio6detail14typeid_wrapperINS1_9schedulerEEE
000000000033a4b8 V _ZTIN5boost4asio6detail15io_context_bitsE
000000000033a750 V _ZTIN5boost4asio6detail16resolver_serviceINS0_2ip3tcpEEE
000000000033a468 V _ZTIN5boost4asio6detail21resolver_service_baseE
000000000033a700 V _ZTIN5boost4asio6detail23reactive_socket_serviceINS0_2ip3tcpEEE
000000000033a488 V _ZTIN5boost4asio6detail28reactive_socket_service_baseE
000000000033a6a0 V _ZTIN5boost4asio6detail30execution_context_service_baseINS1_13epoll_reactorEEE
000000000033a738 V _ZTIN5boost4asio6detail30execution_context_service_baseINS1_16resolver_serviceINS0_2ip3tcpEEEEE
000000000033a6e8 V _ZTIN5boost4asio6detail30execution_context_service_baseINS1_23reactive_socket_serviceINS0_2ip3tcpEEEEE
000000000033a650 V _ZTIN5boost4asio6detail30execution_context_service_baseINS1_9schedulerEEE
000000000033a668 V _ZTIN5boost4asio6detail9schedulerE
000000000033a518 V _ZTIN5boost4asio9execution12bad_executorE
000000000033a588 V _ZTIN5boost6system12system_errorE
000000000033a530 V _ZTIN5boost6system14error_categoryE
000000000033a570 V _ZTIN5boost6system6detail12std_categoryE
000000000033a558 V _ZTIN5boost6system6detail21system_error_categoryE
000000000033a540 V _ZTIN5boost6system6detail22generic_error_categoryE
000000000033a4f8 V _ZTIN5boost9exceptionE
0000000000338ac8 V _ZTIN8ABYParty18CPartyWorkerThreadE
00000000003390c8 V _ZTIN8ABYSetup13CWorkerThreadE
000000000033b608 V _ZTIN8OTExtRec16OTReceiverThreadE
000000000033b648 V _ZTIN8OTExtSnd14OTSenderThreadE
                 U _ZTINSt3_V214error_categoryE
                 U _ZTINSt6thread6_StateE
                 U _ZTISt11logic_error
000000000033a478 V _ZTISt11_Mutex_baseILN9__gnu_cxx12_Lock_policyE2EE
                 U _ZTISt13runtime_error
000000000033a9a0 V _ZTISt15_Sp_counted_ptrIPSt6vectorIN5boost4asio2ip20basic_resolver_entryINS3_3tcpEEESaIS6_EELN9__gnu_cxx12_Lock_policyE2EE
000000000033a4c8 V _ZTISt16_Sp_counted_baseILN9__gnu_cxx12_Lock_policyE2EE
000000000033a928 V _ZTISt19_Sp_counted_deleterIPvN5boost4asio6detail10socket_ops12noop_deleterESaIvELN9__gnu_cxx12_Lock_policyE2EE
000000000033a940 V _ZTISt23_Sp_counted_ptr_inplaceIN5boost4asio10io_contextESaIS2_ELN9__gnu_cxx12_Lock_policyE2EE
                 U _ZTISt8bad_cast
                 U _ZTISt9exception
                 U _ZTIv
0000000000109438 V _ZTS10ABYCircuit
0000000000109ea0 V _ZTS10arithshare
000000000010ea98 V _ZTS10NaorPinkas
000000000010a0b8 V _ZTS10XORMasking
000000000010aed8 V _ZTS10YaoKeyXXLT
000000000010aee8 V _ZTS10YaoSharing
000000000010a600 V _ZTS11BoolSharing
000000000010c4e8 V _ZTS11prime_field
0000000000109480 V _ZTS12ArithSharingIhE
00000000001094c0 V _ZTS12ArithSharingIjE
00000000001094e0 V _ZTS12ArithSharingImE
00000000001094a0 V _ZTS12ArithSharingItE
000000000010c4d8 V _ZTS12ecc_brickexp
000000000010c510 V _ZTS12gmp_brickexp
000000000010ea70 V _ZTS12IKNPOTExtRec
000000000010ea88 V _ZTS12IKNPOTExtSnd
000000000010a0d0 V _ZTS14ArithMTMaskingIhE
000000000010a110 V _ZTS14ArithMTMaskingIjE
000000000010a130 V _ZTS14ArithMTMaskingImE
000000000010a0f0 V _ZTS14ArithMTMaskingItE
000000000010bef0 V _ZTS14BooleanCircuit
000000000010a0a0 V _ZTS15MaskingFunction
000000000010ad90 V _ZTS16YaoClientSharing
000000000010ae20 V _ZTS16YaoServerSharing
0000000000109dd0 V _ZTS17ArithmeticCircuit
000000000010c498 V _ZTS2fe
000000000010c493 V _ZTS3num
000000000010bee2 V _ZTS4FP64
00000000001096a4 V _ZTS5OTExt
0000000000109e84 V _ZTS5share
000000000010ea80 V _ZTS6BaseOT
000000000010c4d0 V _ZTS6ecc_fe
000000000010bed0 V _ZTS6FPType
000000000010c4f8 V _ZTS6gmp_fe
000000000010bee8 V _ZTS6UINT32
000000000010ae90 V _ZTS6YaoKey
0000000000109448 V _ZTS7Circuit
000000000010e7f8 V _ZTS7CThread
000000000010c4c0 V _ZTS7ecc_num
000000000010c500 V _ZTS7gmp_num
000000000010a718 V _ZTS7Sharing
000000000010c4a0 V _ZTS8brickexp
000000000010bec0 V _ZTS8ConvType
00000000001096c0 V _ZTS8OTExtRec
00000000001096b0 V _ZTS8OTExtSnd
000000000010aa70 V _ZTS8SetupLUT
000000000010bed8 V _ZTS8UINTType
000000000010aeb8 V _ZTS8YaoKeyLT
000000000010aea8 V _ZTS8YaoKeyMT
000000000010ae98 V _ZTS8YaoKeyST
0000000000109e90 V _ZTS9boolshare
000000000010c4b0 V _ZTS9ecc_field
000000000010c488 V _ZTS9pk_crypto
000000000010d4c0 V _ZTS9RcvThread
000000000010d4d0 V _ZTS9SndThread
000000000010aec8 V _ZTS9YaoKeyXLT
000000000010e220 V _ZTSN5boost10wrapexceptINS_4asio21invalid_service_ownerEEE
000000000010e260 V _ZTSN5boost10wrapexceptINS_4asio22service_already_existsEEE
000000000010e300 V _ZTSN5boost10wrapexceptINS_4asio2ip16bad_address_castEEE
000000000010e1a0 V _ZTSN5boost10wrapexceptINS_4asio9execution12bad_executorEEE
000000000010e1e0 V _ZTSN5boost10wrapexceptINS_6system12system_errorEEE
000000000010dba0 V _ZTSN5boost16exception_detail10clone_baseE
000000000010e500 V _ZTSN5boost4asio10io_context19basic_executor_typeISaIvELj0EEE
000000000010e620 V _ZTSN5boost4asio10io_context19basic_executor_typeISaIvELj4EEE
000000000010dde0 V _ZTSN5boost4asio17execution_context7serviceE
000000000010db40 V _ZTSN5boost4asio19multiple_exceptionsE
000000000010de60 V _ZTSN5boost4asio21invalid_service_ownerE
000000000010de20 V _ZTSN5boost4asio22service_already_existsE
000000000010e000 V _ZTSN5boost4asio2ip16bad_address_castE
000000000010dda0 V _ZTSN5boost4asio5error6detail13misc_categoryE
000000000010dd20 V _ZTSN5boost4asio5error6detail14netdb_categoryE
000000000010dd60 V _ZTSN5boost4asio5error6detail17addrinfo_categoryE
000000000010dac0 V _ZTSN5boost4asio6detail10socket_ops12noop_deleterE
000000000010da20 V _ZTSN5boost4asio6detail11noncopyableE
000000000010e2a0 V _ZTSN5boost4asio6detail12posix_thread4funcINS1_9scheduler15thread_functionEEE
000000000010dea0 V _ZTSN5boost4asio6detail12posix_thread9func_baseE
000000000010dfc0 V _ZTSN5boost4asio6detail13epoll_reactorE
000000000010d9e0 V _ZTSN5boost4asio6detail14thread_contextE
000000000010e380 V _ZTSN5boost4asio6detail14typeid_wrapperINS1_13epoll_reactorEEE
000000000010e540 V _ZTSN5boost4asio6detail14typeid_wrapperINS1_16resolver_serviceINS0_2ip3tcpEEEEE
000000000010e4a0 V _ZTSN5boost4asio6detail14typeid_wrapperINS1_23reactive_socket_serviceINS0_2ip3tcpEEEEE
000000000010e340 V _ZTSN5boost4asio6detail14typeid_wrapperINS1_9schedulerEEE
000000000010da60 V _ZTSN5boost4asio6detail15io_context_bitsE
000000000010e160 V _ZTSN5boost4asio6detail16resolver_serviceINS0_2ip3tcpEEE
000000000010d920 V _ZTSN5boost4asio6detail21resolver_service_baseE
000000000010e0c0 V _ZTSN5boost4asio6detail23reactive_socket_serviceINS0_2ip3tcpEEE
000000000010d9a0 V _ZTSN5boost4asio6detail28reactive_socket_service_baseE
000000000010df60 V _ZTSN5boost4asio6detail30execution_context_service_baseINS1_13epoll_reactorEEE
000000000010e100 V _ZTSN5boost4asio6detail30execution_context_service_baseINS1_16resolver_serviceINS0_2ip3tcpEEEEE
000000000010e040 V _ZTSN5boost4asio6detail30execution_context_service_baseINS1_23reactive_socket_serviceINS0_2ip3tcpEEEEE
000000000010dee0 V _ZTSN5boost4asio6detail30execution_context_service_baseINS1_9schedulerEEE
000000000010df30 V _ZTSN5boost4asio6detail9schedulerE
000000000010dbe0 V _ZTSN5boost4asio9execution12bad_executorE
000000000010dcf0 V _ZTSN5boost6system12system_errorE
000000000010dc20 V _ZTSN5boost6system14error_categoryE
000000000010dcc0 V _ZTSN5boost6system6detail12std_categoryE
000000000010dc80 V _ZTSN5boost6system6detail21system_error_categoryE
000000000010dc40 V _ZTSN5boost6system6detail22generic_error_categoryE
000000000010db70 V _ZTSN5boost9exceptionE
0000000000109460 V _ZTSN8ABYParty18CPartyWorkerThreadE
00000000001096d0 V _ZTSN8ABYSetup13CWorkerThreadE
000000000010eb70 V _ZTSN8OTExtRec16OTReceiverThreadE
000000000010ec20 V _ZTSN8OTExtSnd14OTSenderThreadE
000000000010d960 V _ZTSSt11_Mutex_baseILN9__gnu_cxx12_Lock_policyE2EE
000000000010e5a0 V _ZTSSt15_Sp_counted_ptrIPSt6vectorIN5boost4asio2ip20basic_resolver_entryINS3_3tcpEEESaIS6_EELN9__gnu_cxx12_Lock_policyE2EE
000000000010db00 V _ZTSSt16_Sp_counted_baseILN9__gnu_cxx12_Lock_policyE2EE
000000000010e3c0 V _ZTSSt19_Sp_counted_deleterIPvN5boost4asio6detail10socket_ops12noop_deleterESaIvELN9__gnu_cxx12_Lock_policyE2EE
000000000010da90 V _ZTSSt19_Sp_make_shared_tag
000000000010e440 V _ZTSSt23_Sp_counted_ptr_inplaceIN5boost4asio10io_contextESaIS2_ELN9__gnu_cxx12_Lock_policyE2EE
                 U _ZTTNSt7__cxx1119basic_ostringstreamIcSt11char_traitsIcESaIcEEE
                 U _ZTTSt14basic_ifstreamIcSt11char_traitsIcEE
                 U _ZTTSt14basic_ofstreamIcSt11char_traitsIcEE
0000000000338b40 V _ZTV10ABYCircuit
0000000000339478 V _ZTV10arithshare
000000000033b5d8 V _ZTV10NaorPinkas
0000000000339538 V _ZTV10XORMasking
0000000000339bd8 V _ZTV10YaoKeyXXLT
0000000000339c10 V _ZTV10YaoSharing
0000000000339668 V _ZTV11BoolSharing
000000000033a348 V _ZTV11prime_field
0000000000338d80 V _ZTV12ArithSharingIhE
0000000000338ef0 V _ZTV12ArithSharingIjE
0000000000338fa8 V _ZTV12ArithSharingImE
0000000000338e38 V _ZTV12ArithSharingItE
000000000033a1d8 V _ZTV12ecc_brickexp
000000000033a3c0 V _ZTV12gmp_brickexp
000000000033b548 V _ZTV12IKNPOTExtRec
000000000033b590 V _ZTV12IKNPOTExtSnd
0000000000339570 V _ZTV14ArithMTMaskingIhE
00000000003395e0 V _ZTV14ArithMTMaskingIjE
0000000000339618 V _ZTV14ArithMTMaskingImE
00000000003395a8 V _ZTV14ArithMTMaskingItE
0000000000339db8 V _ZTV14BooleanCircuit
00000000003398d0 V _ZTV16YaoClientSharing
00000000003399a0 V _ZTV16YaoServerSharing
00000000003391a8 V _ZTV17ArithmeticCircuit
0000000000339d60 V _ZTV4FP64
00000000003390e0 V _ZTV5OTExt
0000000000339408 V _ZTV5share
000000000033b518 V _ZTV6BaseOT
000000000033a0f0 V _ZTV6ecc_fe
000000000033a2d0 V _ZTV6gmp_fe
0000000000339d98 V _ZTV6UINT32
0000000000338b60 V _ZTV7Circuit
000000000033b4c8 V _ZTV7CThread
000000000033a168 V _ZTV7ecc_num
000000000033a260 V _ZTV7gmp_num
0000000000339730 V _ZTV7Sharing
0000000000339138 V _ZTV8OTExtRec
0000000000339108 V _ZTV8OTExtSnd
0000000000339800 V _ZTV8SetupLUT
0000000000339b68 V _ZTV8YaoKeyLT
0000000000339b30 V _ZTV8YaoKeyMT
0000000000339af8 V _ZTV8YaoKeyST
0000000000339440 V _ZTV9boolshare
000000000033a078 V _ZTV9ecc_field
000000000033a400 V _ZTV9RcvThread
000000000033a440 V _ZTV9SndThread
0000000000339ba0 V _ZTV9YaoKeyXLT
                 U _ZTVN10__cxxabiv117__class_type_infoE
                 U _ZTVN10__cxxabiv120__si_class_type_infoE
                 U _ZTVN10__cxxabiv121__vmi_class_type_infoE
000000000033af30 V _ZTVN5boost10wrapexceptINS_4asio21invalid_service_ownerEEE
000000000033afa8 V _ZTVN5boost10wrapexceptINS_4asio22service_already_existsEEE
000000000033b048 V _ZTVN5boost10wrapexceptINS_4asio2ip16bad_address_castEEE
000000000033ae40 V _ZTVN5boost10wrapexceptINS_4asio9execution12bad_executorEEE
000000000033aeb8 V _ZTVN5boost10wrapexceptINS_6system12system_errorEEE
000000000033aa28 V _ZTVN5boost16exception_detail10clone_baseE
000000000033a9e0 V _ZTVN5boost4asio19multiple_exceptionsE
000000000033acd0 V _ZTVN5boost4asio21invalid_service_ownerE
000000000033aca8 V _ZTVN5boost4asio22service_already_existsE
000000000033ad58 V _ZTVN5boost4asio2ip16bad_address_castE
000000000033ac60 V _ZTVN5boost4asio5error6detail13misc_categoryE
000000000033abd0 V _ZTVN5boost4asio5error6detail14netdb_categoryE
000000000033ac18 V _ZTVN5boost4asio5error6detail17addrinfo_categoryE
000000000033b020 V _ZTVN5boost4asio6detail12posix_thread4funcINS1_9scheduler15thread_functionEEE
000000000033ad28 V _ZTVN5boost4asio6detail13epoll_reactorE
000000000033ae10 V _ZTVN5boost4asio6detail16resolver_serviceINS0_2ip3tcpEEE
000000000033adb0 V _ZTVN5boost4asio6detail23reactive_socket_serviceINS0_2ip3tcpEEE
000000000033ade0 V _ZTVN5boost4asio6detail30execution_context_service_baseINS1_16resolver_serviceINS0_2ip3tcpEEEEE
000000000033ad80 V _ZTVN5boost4asio6detail30execution_context_service_baseINS1_23reactive_socket_serviceINS0_2ip3tcpEEEEE
000000000033acf8 V _ZTVN5boost4asio6detail9schedulerE
000000000033aa58 V _ZTVN5boost4asio9execution12bad_executorE
000000000033aba8 V _ZTVN5boost6system12system_errorE
000000000033aac8 V _ZTVN5boost6system14error_categoryE
000000000033ab10 V _ZTVN5boost6system6detail12std_categoryE
000000000033ab60 V _ZTVN5boost6system6detail21system_error_categoryE
000000000033aa80 V _ZTVN5boost6system6detail22generic_error_categoryE
000000000033aa08 V _ZTVN5boost9exceptionE
0000000000339060 V _ZTVN8ABYParty18CPartyWorkerThreadE
0000000000339168 V _ZTVN8ABYSetup13CWorkerThreadE
000000000033b620 V _ZTVN8OTExtRec16OTReceiverThreadE
000000000033b660 V _ZTVN8OTExtSnd14OTSenderThreadE
                 U _ZTVNSt7__cxx1115basic_stringbufIcSt11char_traitsIcESaIcEEE
                 U _ZTVNSt7__cxx1119basic_ostringstreamIcSt11char_traitsIcESaIcEEE
                 U _ZTVSt13basic_filebufIcSt11char_traitsIcEE
                 U _ZTVSt14basic_ifstreamIcSt11char_traitsIcEE
                 U _ZTVSt14basic_ofstreamIcSt11char_traitsIcEE
                 U _ZTVSt15basic_streambufIcSt11char_traitsIcEE
000000000033b130 V _ZTVSt15_Sp_counted_ptrIPSt6vectorIN5boost4asio2ip20basic_resolver_entryINS3_3tcpEEESaIS6_EELN9__gnu_cxx12_Lock_policyE2EE
000000000033b0c0 V _ZTVSt19_Sp_counted_deleterIPvN5boost4asio6detail10socket_ops12noop_deleterESaIvELN9__gnu_cxx12_Lock_policyE2EE
000000000033b0f8 V _ZTVSt23_Sp_counted_ptr_inplaceIN5boost4asio10io_contextESaIS2_ELN9__gnu_cxx12_Lock_policyE2EE
                 U _ZTVSt9basic_iosIcSt11char_traitsIcEE
000000000033e530 u _ZZN5boost4asio5error17get_misc_categoryEvE8instance
000000000033e550 u _ZZN5boost4asio5error18get_netdb_categoryEvE8instance
000000000033e540 u _ZZN5boost4asio5error21get_addrinfo_categoryEvE8instance
000000000010e660 u _ZZN5boost4asio6detail13epoll_reactor16descriptor_state10perform_ioEjE4flag
000000000033b380 u _ZZN5boost4asio9execution12any_executorIJNS1_12context_as_tIRNS0_17execution_contextEEENS1_6detail8blocking7never_tILi0EEENS1_11prefer_onlyINS8_10possibly_tILi0EEEEENSB_INS7_16outstanding_work9tracked_tILi0EEEEENSB_INSF_11untracked_tILi0EEEEENSB_INS7_12relationship6fork_tILi0EEEEENSB_INSM_14continuation_tILi0EEEEEEE14prop_fns_tableINS0_10io_context19basic_executor_typeISaIvELj0EEEEEPKNS7_17any_executor_base8prop_fnsIST_EEvE3fns
000000000033b1c0 u _ZZN5boost4asio9execution12any_executorIJNS1_12context_as_tIRNS0_17execution_contextEEENS1_6detail8blocking7never_tILi0EEENS1_11prefer_onlyINS8_10possibly_tILi0EEEEENSB_INS7_16outstanding_work9tracked_tILi0EEEEENSB_INSF_11untracked_tILi0EEEEENSB_INS7_12relationship6fork_tILi0EEEEENSB_INSM_14continuation_tILi0EEEEEEE14prop_fns_tableINS0_10io_context19basic_executor_typeISaIvELj4EEEEEPKNS7_17any_executor_base8prop_fnsIST_EEvE3fns
000000000033b280 u _ZZN5boost4asio9execution12any_executorIJNS1_12context_as_tIRNS0_17execution_contextEEENS1_6detail8blocking7never_tILi0EEENS1_11prefer_onlyINS8_10possibly_tILi0EEEEENSB_INS7_16outstanding_work9tracked_tILi0EEEEENSB_INSF_11untracked_tILi0EEEEENSB_INS7_12relationship6fork_tILi0EEEEENSB_INSM_14continuation_tILi0EEEEEEE14prop_fns_tableIvEEPKNS7_17any_executor_base8prop_fnsIST_EEvE3fns
000000000033b340 u _ZZN5boost4asio9execution6detail17any_executor_base16object_fns_tableINS0_10io_context19basic_executor_typeISaIvELj0EEEEEPKNS3_10object_fnsEPNSt9enable_ifIXaantsrSt7is_sameIT_vE5valuentsrSD_ISE_St10shared_ptrIvEE5valueEvE4typeEE3fns
000000000033b180 u _ZZN5boost4asio9execution6detail17any_executor_base16object_fns_tableINS0_10io_context19basic_executor_typeISaIvELj4EEEEEPKNS3_10object_fnsEPNSt9enable_ifIXaantsrSt7is_sameIT_vE5valuentsrSD_ISE_St10shared_ptrIvEE5valueEvE4typeEE3fns
000000000033b460 u _ZZN5boost4asio9execution6detail17any_executor_base16object_fns_tableIvEEPKNS3_10object_fnsEPNSt9enable_ifIXsrSt7is_sameIT_vE5valueEvE4typeEE3fns
000000000033b360 u _ZZN5boost4asio9execution6detail17any_executor_base16target_fns_tableINS0_10io_context19basic_executor_typeISaIvELj0EEEEEPKNS3_10target_fnsEbPNSt9enable_ifIXntsrSt7is_sameIT_vE5valueEvE4typeEE16fns_with_execute
000000000033b1a0 u _ZZN5boost4asio9execution6detail17any_executor_base16target_fns_tableINS0_10io_context19basic_executor_typeISaIvELj4EEEEEPKNS3_10target_fnsEbPNSt9enable_ifIXntsrSt7is_sameIT_vE5valueEvE4typeEE16fns_with_execute
000000000033b440 u _ZZN5boost4asio9execution6detail17any_executor_base16target_fns_tableIvEEPKNS3_10target_fnsEPNSt9enable_ifIXsrSt7is_sameIT_vE5valueEvE4typeEE3fns
0000000000345080 u _ZZN5boost6system6detail15to_std_categoryERKNS0_14error_categoryEE15system_instance
0000000000345060 u _ZZN5boost6system6detail15to_std_categoryERKNS0_14error_categoryEE16generic_instance
0000000000345020 u _ZZN5boost6system6detail15to_std_categoryERKNS0_14error_categoryEE4map_
0000000000344fe0 u _ZZN5boost6system6detail15to_std_categoryERKNS0_14error_categoryEE7map_mx_
000000000010e680 u _ZZN5boost6system6detail16is_generic_valueEiE3gen
000000000010e7c0 u _ZZNSt19_Sp_make_shared_tag5_S_tiEvE5__tag
000000000010bf20 u _ZZNSt8__detail18__to_chars_10_implIjEEvPcjT_E8__digits
